ARM GAS  C:\Users\mathi\AppData\Local\Temp\ccrWFTfp.s 			page 1


   1              		.cpu cortex-m4
   2              		.eabi_attribute 27, 1
   3              		.eabi_attribute 28, 1
   4              		.eabi_attribute 20, 1
   5              		.eabi_attribute 21, 1
   6              		.eabi_attribute 23, 3
   7              		.eabi_attribute 24, 1
   8              		.eabi_attribute 25, 1
   9              		.eabi_attribute 26, 1
  10              		.eabi_attribute 30, 2
  11              		.eabi_attribute 34, 1
  12              		.eabi_attribute 18, 4
  13              		.file	"pi_regulator.c"
  14              		.text
  15              	.Ltext0:
  16              		.cfi_sections	.debug_frame
  17              		.section	.text.chprintf.constprop.0,"ax",%progbits
  18              		.align	1
  19              		.p2align 4,,15
  20              		.syntax unified
  21              		.thumb
  22              		.thumb_func
  23              		.fpu fpv4-sp-d16
  24              		.type	chprintf.constprop.0, %function
  25              	chprintf.constprop.0:
  26              	.LFB259:
  27              		.file 1 "../../lib/e-puck2_main-processor/ChibiOS//os/hal/lib/streams/chprintf.h"
  28              		.loc 1 69 0
  29              		.cfi_startproc
  30              		@ args = 4, pretend = 12, frame = 8
  31              		@ frame_needed = 0, uses_anonymous_args = 1
  32              	.LVL0:
  33 0000 0EB4     		push	{r1, r2, r3}
  34              		.cfi_def_cfa_offset 12
  35              		.cfi_offset 1, -12
  36              		.cfi_offset 2, -8
  37              		.cfi_offset 3, -4
  38 0002 10B5     		push	{r4, lr}
  39              		.cfi_def_cfa_offset 20
  40              		.cfi_offset 4, -20
  41              		.cfi_offset 14, -16
  42 0004 0A4C     		ldr	r4, .L6
  43              		.loc 1 74 0
  44 0006 0B49     		ldr	r1, .L6+4
  45              		.loc 1 69 0
  46 0008 2368     		ldr	r3, [r4]
  47              		.loc 1 74 0
  48 000a 0B48     		ldr	r0, .L6+8
  49              	.LVL1:
  50              		.loc 1 69 0
  51 000c 83B0     		sub	sp, sp, #12
  52              		.cfi_def_cfa_offset 32
  53              		.loc 1 69 0
  54 000e 0193     		str	r3, [sp, #4]
  55              	.LVL2:
  56              		.loc 1 73 0
  57 0010 06AB     		add	r3, sp, #24
ARM GAS  C:\Users\mathi\AppData\Local\Temp\ccrWFTfp.s 			page 2


  58              		.loc 1 74 0
  59 0012 1A46     		mov	r2, r3
  60              		.loc 1 73 0
  61 0014 0093     		str	r3, [sp]
  62              		.loc 1 74 0
  63 0016 FFF7FEFF 		bl	chvprintf
  64              	.LVL3:
  65              		.loc 1 78 0
  66 001a 019A     		ldr	r2, [sp, #4]
  67 001c 2368     		ldr	r3, [r4]
  68 001e 9A42     		cmp	r2, r3
  69 0020 04D1     		bne	.L5
  70 0022 03B0     		add	sp, sp, #12
  71              		.cfi_remember_state
  72              		.cfi_def_cfa_offset 20
  73              		@ sp needed
  74 0024 BDE81040 		pop	{r4, lr}
  75              		.cfi_restore 14
  76              		.cfi_restore 4
  77              		.cfi_def_cfa_offset 12
  78 0028 03B0     		add	sp, sp, #12
  79              		.cfi_restore 3
  80              		.cfi_restore 2
  81              		.cfi_restore 1
  82              		.cfi_def_cfa_offset 0
  83 002a 7047     		bx	lr
  84              	.L5:
  85              		.cfi_restore_state
  86 002c FFF7FEFF 		bl	__stack_chk_fail
  87              	.LVL4:
  88              	.L7:
  89              		.align	2
  90              	.L6:
  91 0030 00000000 		.word	__stack_chk_guard
  92 0034 00000000 		.word	.LC0
  93 0038 00000000 		.word	SD3
  94              		.cfi_endproc
  95              	.LFE259:
  96              		.size	chprintf.constprop.0, .-chprintf.constprop.0
  97              		.global	__aeabi_f2d
  98              		.section	.text.PiRegulator,"ax",%progbits
  99              		.align	1
 100              		.p2align 4,,15
 101              		.syntax unified
 102              		.thumb
 103              		.thumb_func
 104              		.fpu fpv4-sp-d16
 105              		.type	PiRegulator, %function
 106              	PiRegulator:
 107              	.LFB257:
 108              		.file 2 "pi_regulator.c"
 109              		.loc 2 14 0
 110              		.cfi_startproc
 111              		@ args = 0, pretend = 0, frame = 8
 112              		@ frame_needed = 0, uses_anonymous_args = 0
 113              	.LVL5:
 114 0000 2DE9F04F 		push	{r4, r5, r6, r7, r8, r9, r10, fp, lr}
ARM GAS  C:\Users\mathi\AppData\Local\Temp\ccrWFTfp.s 			page 3


 115              		.cfi_def_cfa_offset 36
 116              		.cfi_offset 4, -36
 117              		.cfi_offset 5, -32
 118              		.cfi_offset 6, -28
 119              		.cfi_offset 7, -24
 120              		.cfi_offset 8, -20
 121              		.cfi_offset 9, -16
 122              		.cfi_offset 10, -12
 123              		.cfi_offset 11, -8
 124              		.cfi_offset 14, -4
 125 0004 2DED068B 		vpush.64	{d8, d9, d10}
 126              		.cfi_def_cfa_offset 60
 127              		.cfi_offset 80, -60
 128              		.cfi_offset 81, -56
 129              		.cfi_offset 82, -52
 130              		.cfi_offset 83, -48
 131              		.cfi_offset 84, -44
 132              		.cfi_offset 85, -40
 133              	.LBB48:
 134              	.LBB49:
 135              		.file 3 "../../lib/e-puck2_main-processor/ChibiOS//os/rt/include/chregistry.h"
 136              		.loc 3 135 0
 137 0008 3F4D     		ldr	r5, .L16
 138              	.LBE49:
 139              	.LBE48:
 140              		.loc 2 14 0
 141 000a 404B     		ldr	r3, .L16+4
 142              	.LBB52:
 143              	.LBB50:
 144              		.loc 3 135 0
 145 000c AA69     		ldr	r2, [r5, #24]
 146 000e 4049     		ldr	r1, .L16+8
 147              	.LBE50:
 148              	.LBE52:
 149              		.loc 2 14 0
 150 0010 1B68     		ldr	r3, [r3]
 151 0012 DFF818B1 		ldr	fp, .L16+36
 152              		.loc 2 46 0
 153 0016 DFED3FAA 		vldr.32	s21, .L16+12
 154              		.loc 2 47 0
 155 001a 9FED3FAA 		vldr.32	s20, .L16+16
 156              		.loc 2 49 0
 157 001e DFED3F9A 		vldr.32	s19, .L16+20
 158              	.LBB53:
 159              	.LBB51:
 160              		.loc 3 135 0
 161 0022 9161     		str	r1, [r2, #24]
 162              	.LBE51:
 163              	.LBE53:
 164              		.loc 2 14 0
 165 0024 87B0     		sub	sp, sp, #28
 166              		.cfi_def_cfa_offset 88
 167              		.loc 2 47 0
 168 0026 4FF00008 		mov	r8, #0
 169 002a 4FF00009 		mov	r9, #0
 170              		.loc 2 14 0
 171 002e 0593     		str	r3, [sp, #20]
ARM GAS  C:\Users\mathi\AppData\Local\Temp\ccrWFTfp.s 			page 4


 172              	.LVL6:
 173 0030 2EE0     		b	.L12
 174              	.LVL7:
 175              	.L15:
 176              		.loc 2 47 0
 177 0032 61D4     		bmi	.L10
 178 0034 27EE888A 		vmul.f32	s16, s15, s16
 179 0038 FFF7FEFF 		bl	__aeabi_f2d
 180              	.LVL8:
 181 003c 0646     		mov	r6, r0
 182 003e 0F46     		mov	r7, r1
 183              	.L11:
 184              	.LVL9:
 185              		.loc 2 49 0
 186 0040 F0EE487A 		vmov.f32	s15, s16
 187 0044 E9EE297A 		vfma.f32	s15, s18, s19
 188              		.loc 2 53 0
 189 0048 19EE100A 		vmov	r0, s18
 190              		.loc 2 49 0
 191 004c FDEEE77A 		vcvt.s32.f32	s15, s15
 192              		.loc 2 53 0
 193 0050 17EE903A 		vmov	r3, s15	@ int
 194 0054 1CB2     		sxth	r4, r3
 195 0056 FFF7FEFF 		bl	__aeabi_f2d
 196              	.LVL10:
 197 005a CDE90067 		strd	r6, [sp]
 198 005e 0246     		mov	r2, r0
 199 0060 0B46     		mov	r3, r1
 200 0062 0294     		str	r4, [sp, #8]
 201 0064 2E49     		ldr	r1, .L16+24
 202 0066 2F48     		ldr	r0, .L16+28
 203 0068 FFF7FEFF 		bl	chprintf.constprop.0
 204              	.LVL11:
 205              		.loc 2 50 0
 206 006c 68EEA98A 		vmul.f32	s17, s17, s19
 207              	.LVL12:
 208 0070 FDEEE88A 		vcvt.s32.f32	s17, s17
 209              		.loc 2 55 0
 210 0074 18EE903A 		vmov	r3, s17	@ int
 211 0078 1EB2     		sxth	r6, r3
 212 007a A01B     		subs	r0, r4, r6
 213 007c FFF7FEFF 		bl	right_motor_set_speed
 214              	.LVL13:
 215              		.loc 2 56 0
 216 0080 A019     		adds	r0, r4, r6
 217 0082 FFF7FEFF 		bl	left_motor_set_speed
 218              	.LVL14:
 219              		.loc 2 59 0
 220 0086 0AF10A01 		add	r1, r10, #10
 221 008a 5046     		mov	r0, r10
 222 008c FFF7FEFF 		bl	chThdSleepUntilWindowed
 223              	.LVL15:
 224              	.L12:
 225              	.LBB54:
 226              	.LBB55:
 227              	.LBB56:
 228              	.LBB57:
ARM GAS  C:\Users\mathi\AppData\Local\Temp\ccrWFTfp.s 			page 5


 229              	.LBB58:
 230              	.LBB59:
 231              	.LBB60:
 232              		.file 4 "../../lib/e-puck2_main-processor/ChibiOS//os/ext/CMSIS/include/core_cmFunc.h"
 233              		.loc 4 546 0
 234 0090 2023     		movs	r3, #32
 235              		.syntax unified
 236              	@ 546 "../../lib/e-puck2_main-processor/ChibiOS//os/ext/CMSIS/include/core_cmFunc.h" 1
 237 0092 83F31188 		MSR basepri, r3
 238              	@ 0 "" 2
 239              	.LVL16:
 240              		.thumb
 241              		.syntax unified
 242              	.LBE60:
 243              	.LBE59:
 244              	.LBE58:
 245              		.file 5 "../../lib/e-puck2_main-processor/ChibiOS//os/rt/include/chsys.h"
 246              		.loc 5 349 0
 247 0096 FFF7FEFF 		bl	_stats_start_measure_crit_thd
 248              	.LVL17:
 249              		.loc 5 350 0
 250 009a FFF7FEFF 		bl	_dbg_check_lock
 251              	.LVL18:
 252              	.LBE57:
 253              	.LBE56:
 254              	.LBB61:
 255              	.LBB62:
 256              		.file 6 "../../lib/e-puck2_main-processor/ChibiOS//os/rt/include/chvt.h"
 257              		.loc 6 231 0
 258 009e D5F828A0 		ldr	r10, [r5, #40]
 259              	.LBE62:
 260              	.LBE61:
 261              	.LBB63:
 262              	.LBB64:
 263              		.loc 5 360 0
 264 00a2 FFF7FEFF 		bl	_dbg_check_unlock
 265              	.LVL19:
 266              		.loc 5 361 0
 267 00a6 FFF7FEFF 		bl	_stats_stop_measure_crit_thd
 268              	.LVL20:
 269              		.loc 5 367 0
 270 00aa 2B68     		ldr	r3, [r5]
 271 00ac AB42     		cmp	r3, r5
 272 00ae 07D0     		beq	.L9
 273 00b0 AA69     		ldr	r2, [r5, #24]
 274 00b2 9B68     		ldr	r3, [r3, #8]
 275 00b4 9268     		ldr	r2, [r2, #8]
 276 00b6 9A42     		cmp	r2, r3
 277 00b8 02D2     		bcs	.L9
 278 00ba 1B48     		ldr	r0, .L16+32
 279 00bc FFF7FEFF 		bl	chSysHalt
 280              	.LVL21:
 281              	.L9:
 282              	.LBB65:
 283              	.LBB66:
 284              	.LBB67:
 285              		.loc 4 546 0
ARM GAS  C:\Users\mathi\AppData\Local\Temp\ccrWFTfp.s 			page 6


 286 00c0 0023     		movs	r3, #0
 287              		.syntax unified
 288              	@ 546 "../../lib/e-puck2_main-processor/ChibiOS//os/ext/CMSIS/include/core_cmFunc.h" 1
 289 00c2 83F31188 		MSR basepri, r3
 290              	@ 0 "" 2
 291              	.LVL22:
 292              		.thumb
 293              		.syntax unified
 294              	.LBE67:
 295              	.LBE66:
 296              	.LBE65:
 297              	.LBE64:
 298              	.LBE63:
 299              	.LBE55:
 300              	.LBE54:
 301              		.loc 2 41 0
 302 00c6 FFF7FEFF 		bl	get_distance_cm
 303              	.LVL23:
 304 00ca B2EE049A 		vmov.f32	s18, #1.0e+1
 305 00ce 30EE499A 		vsub.f32	s18, s0, s18
 306              	.LVL24:
 307              		.loc 2 42 0
 308 00d2 FFF7FEFF 		bl	get_ang_norm
 309              	.LVL25:
 310              		.loc 2 44 0
 311 00d6 DBED007A 		vldr.32	s15, [fp]
 312 00da 79EE277A 		vadd.f32	s15, s18, s15
 313              		.loc 2 42 0
 314 00de F0EE408A 		vmov.f32	s17, s0
 315              	.LVL26:
 316              		.loc 2 46 0
 317 00e2 F4EEEA7A 		vcmpe.f32	s15, s21
 318 00e6 F1EE10FA 		vmrs	APSR_nzcv, FPSCR
 319 00ea B0EE088A 		vmov.f32	s16, #3.0e+0
 320              		.loc 2 44 0
 321 00ee CBED007A 		vstr.32	s15, [fp]
 322 00f2 17EE900A 		vmov	r0, s15
 323              		.loc 2 46 0
 324 00f6 9CDD     		ble	.L15
 325              	.L10:
 326              		.loc 2 47 0 discriminator 1
 327 00f8 4646     		mov	r6, r8
 328 00fa 4F46     		mov	r7, r9
 329 00fc B0EE4A8A 		vmov.f32	s16, s20
 330 0100 8BED00AA 		vstr.32	s20, [fp]
 331 0104 9CE7     		b	.L11
 332              	.L17:
 333 0106 00BF     		.align	2
 334              	.L16:
 335 0108 00000000 		.word	ch
 336 010c 00000000 		.word	__stack_chk_guard
 337 0110 00000000 		.word	.LANCHOR0
 338 0114 00007A44 		.word	1148846080
 339 0118 00000000 		.word	0
 340 011c 0000C843 		.word	1137180672
 341 0120 00000000 		.word	.LC0
 342 0124 00000000 		.word	SD3
ARM GAS  C:\Users\mathi\AppData\Local\Temp\ccrWFTfp.s 			page 7


 343 0128 00000000 		.word	.LANCHOR1
 344 012c 00000000 		.word	.LANCHOR2
 345              		.cfi_endproc
 346              	.LFE257:
 347              		.size	PiRegulator, .-PiRegulator
 348              		.section	.text.pi_regulator_start,"ax",%progbits
 349              		.align	1
 350              		.p2align 4,,15
 351              		.global	pi_regulator_start
 352              		.syntax unified
 353              		.thumb
 354              		.thumb_func
 355              		.fpu fpv4-sp-d16
 356              		.type	pi_regulator_start, %function
 357              	pi_regulator_start:
 358              	.LFB258:
 359              		.loc 2 63 0
 360              		.cfi_startproc
 361              		@ args = 0, pretend = 0, frame = 8
 362              		@ frame_needed = 0, uses_anonymous_args = 0
 363 0000 10B5     		push	{r4, lr}
 364              		.cfi_def_cfa_offset 8
 365              		.cfi_offset 4, -8
 366              		.cfi_offset 14, -4
 367 0002 0A4C     		ldr	r4, .L22
 368              		.loc 2 64 0
 369 0004 0A4B     		ldr	r3, .L22+4
 370              		.loc 2 63 0
 371 0006 2268     		ldr	r2, [r4]
 372              		.loc 2 64 0
 373 0008 0A48     		ldr	r0, .L22+8
 374              		.loc 2 63 0
 375 000a 84B0     		sub	sp, sp, #16
 376              		.cfi_def_cfa_offset 24
 377              		.loc 2 64 0
 378 000c 4FF41E71 		mov	r1, #632
 379              		.loc 2 63 0
 380 0010 0392     		str	r2, [sp, #12]
 381              		.loc 2 64 0
 382 0012 0022     		movs	r2, #0
 383 0014 0092     		str	r2, [sp]
 384 0016 4022     		movs	r2, #64
 385 0018 FFF7FEFF 		bl	chThdCreateStatic
 386              	.LVL27:
 387              		.loc 2 65 0
 388 001c 039A     		ldr	r2, [sp, #12]
 389 001e 2368     		ldr	r3, [r4]
 390 0020 9A42     		cmp	r2, r3
 391 0022 01D1     		bne	.L21
 392 0024 04B0     		add	sp, sp, #16
 393              		.cfi_remember_state
 394              		.cfi_def_cfa_offset 8
 395              		@ sp needed
 396 0026 10BD     		pop	{r4, pc}
 397              	.L21:
 398              		.cfi_restore_state
 399 0028 FFF7FEFF 		bl	__stack_chk_fail
ARM GAS  C:\Users\mathi\AppData\Local\Temp\ccrWFTfp.s 			page 8


 400              	.LVL28:
 401              	.L23:
 402              		.align	2
 403              	.L22:
 404 002c 00000000 		.word	__stack_chk_guard
 405 0030 00000000 		.word	PiRegulator
 406 0034 00000000 		.word	.LANCHOR3
 407              		.cfi_endproc
 408              	.LFE258:
 409              		.size	pi_regulator_start, .-pi_regulator_start
 410              		.section	.bss.int_fact.11860,"aw",%nobits
 411              		.align	2
 412              		.set	.LANCHOR2,. + 0
 413              		.type	int_fact.11860, %object
 414              		.size	int_fact.11860, 4
 415              	int_fact.11860:
 416 0000 00000000 		.space	4
 417              		.section	.bss.waPiRegulator,"aw",%nobits
 418              		.align	3
 419              		.set	.LANCHOR3,. + 0
 420              		.type	waPiRegulator, %object
 421              		.size	waPiRegulator, 632
 422              	waPiRegulator:
 423 0000 00000000 		.space	632
 423      00000000 
 423      00000000 
 423      00000000 
 423      00000000 
 424              		.section	.rodata.__FUNCTION__.11850,"a",%progbits
 425              		.align	2
 426              		.set	.LANCHOR0,. + 0
 427              		.type	__FUNCTION__.11850, %object
 428              		.size	__FUNCTION__.11850, 12
 429              	__FUNCTION__.11850:
 430 0000 50695265 		.ascii	"PiRegulator\000"
 430      67756C61 
 430      746F7200 
 431              		.section	.rodata.__func__.7153,"a",%progbits
 432              		.align	2
 433              		.set	.LANCHOR1,. + 0
 434              		.type	__func__.7153, %object
 435              		.size	__func__.7153, 12
 436              	__func__.7153:
 437 0000 63685379 		.ascii	"chSysUnlock\000"
 437      73556E6C 
 437      6F636B00 
 438              		.section	.rodata.chprintf.constprop.0.str1.4,"aMS",%progbits,1
 439              		.align	2
 440              	.LC0:
 441 0000 6572723A 		.ascii	"err: %.2f integ : %.2f speed: %i \015\012\000"
 441      20252E32 
 441      6620696E 
 441      74656720 
 441      3A20252E 
 442              		.text
 443              	.Letext0:
 444              		.file 7 "c:\\eclipse_e-puck2\\tools\\gcc-arm-none-eabi-7-2017-q4-major-win32\\lib\\gcc\\arm-none-e
ARM GAS  C:\Users\mathi\AppData\Local\Temp\ccrWFTfp.s 			page 9


 445              		.file 8 "c:\\eclipse_e-puck2\\tools\\gcc-arm-none-eabi-7-2017-q4-major-win32\\arm-none-eabi\\inclu
 446              		.file 9 "c:\\eclipse_e-puck2\\tools\\gcc-arm-none-eabi-7-2017-q4-major-win32\\arm-none-eabi\\inclu
 447              		.file 10 "../../lib/e-puck2_main-processor/ChibiOS//os/rt/ports/ARMCMx/compilers/GCC/chtypes.h"
 448              		.file 11 "../../lib/e-puck2_main-processor/ChibiOS//os/rt/include/chsystypes.h"
 449              		.file 12 "../../lib/e-puck2_main-processor/ChibiOS//os/rt/include/chschd.h"
 450              		.file 13 "../../lib/e-puck2_main-processor/ChibiOS//os/ext/CMSIS/include/core_cm4.h"
 451              		.file 14 "../../lib/e-puck2_main-processor/ChibiOS//os/ext/CMSIS/ST/system_stm32f4xx.h"
 452              		.file 15 "../../lib/e-puck2_main-processor/ChibiOS//os/ext/CMSIS/ST/stm32f407xx.h"
 453              		.file 16 "../../lib/e-puck2_main-processor/ChibiOS//os/rt/ports/ARMCMx/chcore.h"
 454              		.file 17 "../../lib/e-puck2_main-processor/ChibiOS//os/rt/ports/ARMCMx/chcore_v7m.h"
 455              		.file 18 "../../lib/e-puck2_main-processor/ChibiOS//os/rt/include/chdebug.h"
 456              		.file 19 "../../lib/e-puck2_main-processor/ChibiOS//os/rt/include/chtm.h"
 457              		.file 20 "../../lib/e-puck2_main-processor/ChibiOS//os/rt/include/chstats.h"
 458              		.file 21 "../../lib/e-puck2_main-processor/ChibiOS//os/rt/include/chsem.h"
 459              		.file 22 "../../lib/e-puck2_main-processor/ChibiOS//os/rt/include/chmtx.h"
 460              		.file 23 "../../lib/e-puck2_main-processor/ChibiOS//os/rt/include/chevents.h"
 461              		.file 24 "../../lib/e-puck2_main-processor/ChibiOS//os/rt/include/chqueues.h"
 462              		.file 25 "../../lib/e-puck2_main-processor/ChibiOS//os/rt/include/chstreams.h"
 463              		.file 26 "../../lib/e-puck2_main-processor/ChibiOS//os/hal/ports/STM32/STM32F4xx/stm32_dma.h"
 464              		.file 27 "../../lib/e-puck2_main-processor/ChibiOS//os/hal/include/hal_ioblock.h"
 465              		.file 28 "../../lib/e-puck2_main-processor/ChibiOS//os/hal/ports/STM32/LLD/GPIOv2/pal_lld.h"
 466              		.file 29 "../../lib/e-puck2_main-processor/ChibiOS//os/hal/include/adc.h"
 467              		.file 30 "../../lib/e-puck2_main-processor/ChibiOS//os/hal/ports/STM32/STM32F4xx/adc_lld.h"
 468              		.file 31 "../../lib/e-puck2_main-processor/ChibiOS//os/hal/include/can.h"
 469              		.file 32 "../../lib/e-puck2_main-processor/ChibiOS//os/hal/ports/STM32/LLD/can_lld.h"
 470              		.file 33 "../../lib/e-puck2_main-processor/ChibiOS//os/hal/include/dac.h"
 471              		.file 34 "../../lib/e-puck2_main-processor/ChibiOS//os/hal/ports/STM32/LLD/DACv1/dac_lld.h"
 472              		.file 35 "../../lib/e-puck2_main-processor/ChibiOS//os/hal/include/ext.h"
 473              		.file 36 "../../lib/e-puck2_main-processor/ChibiOS//os/hal/ports/STM32/LLD/ext_lld.h"
 474              		.file 37 "../../lib/e-puck2_main-processor/ChibiOS//os/hal/include/gpt.h"
 475              		.file 38 "../../lib/e-puck2_main-processor/ChibiOS//os/hal/ports/STM32/LLD/TIMv1/gpt_lld.h"
 476              		.file 39 "../../lib/e-puck2_main-processor/ChibiOS//os/hal/ports/STM32/LLD/TIMv1/stm32_tim.h"
 477              		.file 40 "../../lib/e-puck2_main-processor/ChibiOS//os/hal/include/i2c.h"
 478              		.file 41 "../../lib/e-puck2_main-processor/ChibiOS//os/hal/ports/STM32/LLD/I2Cv1/i2c_lld.h"
 479              		.file 42 "../../lib/e-puck2_main-processor/ChibiOS//os/hal/include/i2s.h"
 480              		.file 43 "../../lib/e-puck2_main-processor/ChibiOS//os/hal/ports/STM32/LLD/SPIv1/i2s_lld.h"
 481              		.file 44 "../../lib/e-puck2_main-processor/ChibiOS//os/hal/include/pwm.h"
 482              		.file 45 "../../lib/e-puck2_main-processor/ChibiOS//os/hal/ports/STM32/LLD/TIMv1/pwm_lld.h"
 483              		.file 46 "../../lib/e-puck2_main-processor/ChibiOS//os/hal/include/serial.h"
 484              		.file 47 "../../lib/e-puck2_main-processor/ChibiOS//os/hal/ports/STM32/LLD/USARTv1/serial_lld.h"
 485              		.file 48 "../../lib/e-puck2_main-processor/ChibiOS//os/hal/include/sdc.h"
 486              		.file 49 "../../lib/e-puck2_main-processor/ChibiOS//os/hal/ports/STM32/LLD/sdc_lld.h"
 487              		.file 50 "../../lib/e-puck2_main-processor/ChibiOS//os/hal/include/spi.h"
 488              		.file 51 "../../lib/e-puck2_main-processor/ChibiOS//os/hal/ports/STM32/LLD/SPIv1/spi_lld.h"
 489              		.file 52 "../../lib/e-puck2_main-processor/ChibiOS//os/hal/include/usb.h"
 490              		.file 53 "../../lib/e-puck2_main-processor/ChibiOS//os/hal/ports/STM32/LLD/OTGv1/usb_lld.h"
 491              		.file 54 "../../lib/e-puck2_main-processor/ChibiOS//os/hal/ports/STM32/LLD/OTGv1/stm32_otg.h"
 492              		.file 55 "../../lib/e-puck2_main-processor/ChibiOS//os/hal/include/serial_usb.h"
 493              		.file 56 "c:\\eclipse_e-puck2\\tools\\gcc-arm-none-eabi-7-2017-q4-major-win32\\arm-none-eabi\\incl
 494              		.file 57 "c:\\eclipse_e-puck2\\tools\\gcc-arm-none-eabi-7-2017-q4-major-win32\\arm-none-eabi\\incl
 495              		.file 58 "c:\\eclipse_e-puck2\\tools\\gcc-arm-none-eabi-7-2017-q4-major-win32\\arm-none-eabi\\incl
 496              		.file 59 "c:\\eclipse_e-puck2\\tools\\gcc-arm-none-eabi-7-2017-q4-major-win32\\arm-none-eabi\\incl
 497              		.file 60 "../../lib/e-puck2_main-processor/src/usbcfg.h"
 498              		.file 61 "c:\\eclipse_e-puck2\\tools\\gcc-arm-none-eabi-7-2017-q4-major-win32\\lib\\gcc\\arm-none-
 499              		.file 62 "<built-in>"
 500              		.file 63 "../../lib/e-puck2_main-processor/ChibiOS_ext/os/hal/include/../ports/STM32/STM32F4xx/dcm
 501              		.file 64 "c:\\eclipse_e-puck2\\tools\\gcc-arm-none-eabi-7-2017-q4-major-win32\\arm-none-eabi\\incl
ARM GAS  C:\Users\mathi\AppData\Local\Temp\ccrWFTfp.s 			page 10


 502              		.file 65 "../../lib/e-puck2_main-processor/src/msgbus/messagebus.h"
 503              		.file 66 "c:\\eclipse_e-puck2\\tools\\gcc-arm-none-eabi-7-2017-q4-major-win32\\arm-none-eabi\\incl
 504              		.file 67 "../../lib/e-puck2_main-processor/src/parameter/parameter.h"
 505              		.file 68 "./main.h"
 506              		.file 69 "../../lib/e-puck2_main-processor/ChibiOS//os/rt/include/chthreads.h"
 507              		.file 70 "../../lib/e-puck2_main-processor/src/motors.h"
 508              		.file 71 "./process_image.h"