ARM GAS  C:\Users\mathi\AppData\Local\Temp\ccDZMzqV.s 			page 1


   1              		.cpu cortex-m4
   2              		.eabi_attribute 27, 1
   3              		.eabi_attribute 28, 1
   4              		.eabi_attribute 20, 1
   5              		.eabi_attribute 21, 1
   6              		.eabi_attribute 23, 3
   7              		.eabi_attribute 24, 1
   8              		.eabi_attribute 25, 1
   9              		.eabi_attribute 26, 1
  10              		.eabi_attribute 30, 2
  11              		.eabi_attribute 34, 1
  12              		.eabi_attribute 18, 4
  13              		.file	"audio_processing.c"
  14              		.text
  15              	.Ltext0:
  16              		.cfi_sections	.debug_frame
  17              		.section	.text.processAudioData,"ax",%progbits
  18              		.align	1
  19              		.p2align 4,,15
  20              		.global	processAudioData
  21              		.syntax unified
  22              		.thumb
  23              		.thumb_func
  24              		.fpu fpv4-sp-d16
  25              		.type	processAudioData, %function
  26              	processAudioData:
  27              	.LFB290:
  28              		.file 1 "audio_processing.c"
  29              		.loc 1 37 0
  30              		.cfi_startproc
  31              		@ args = 0, pretend = 0, frame = 8
  32              		@ frame_needed = 0, uses_anonymous_args = 0
  33              	.LVL0:
  34 0000 2DE9F04F 		push	{r4, r5, r6, r7, r8, r9, r10, fp, lr}
  35              		.cfi_def_cfa_offset 36
  36              		.cfi_offset 4, -36
  37              		.cfi_offset 5, -32
  38              		.cfi_offset 6, -28
  39              		.cfi_offset 7, -24
  40              		.cfi_offset 8, -20
  41              		.cfi_offset 9, -16
  42              		.cfi_offset 10, -12
  43              		.cfi_offset 11, -8
  44              		.cfi_offset 14, -4
  45 0004 5F4D     		ldr	r5, .L21
  46 0006 604E     		ldr	r6, .L21+4
  47 0008 2B68     		ldr	r3, [r5]
  48 000a 3488     		ldrh	r4, [r6]
  49 000c 83B0     		sub	sp, sp, #12
  50              		.cfi_def_cfa_offset 48
  51              		.loc 1 37 0
  52 000e 0193     		str	r3, [sp, #4]
  53              	.LVL1:
  54              	.LBB76:
  55              		.loc 1 62 0
  56 0010 0029     		cmp	r1, #0
  57 0012 51D0     		beq	.L2
ARM GAS  C:\Users\mathi\AppData\Local\Temp\ccDZMzqV.s 			page 2


  58 0014 B4F5006F 		cmp	r4, #2048
  59 0018 4ED2     		bcs	.L2
  60 001a 4F1E     		subs	r7, r1, #1
  61 001c BFB2     		uxth	r7, r7
  62 001e DFF87C91 		ldr	r9, .L21+24
  63 0022 DFF88081 		ldr	r8, .L21+32
  64 0026 DFF888E1 		ldr	lr, .L21+44
  65 002a DFF888C1 		ldr	ip, .L21+48
  66              		.loc 1 64 0
  67 002e 0021     		movs	r1, #0
  68              	.LVL2:
  69 0030 00EBC707 		add	r7, r0, r7, lsl #3
  70 0034 04E0     		b	.L4
  71              	.LVL3:
  72              	.L3:
  73              		.loc 1 62 0 discriminator 3
  74 0036 B4F5006F 		cmp	r4, #2048
  75 003a 00F10800 		add	r0, r0, #8
  76 003e 3AD2     		bcs	.L16
  77              	.L4:
  78              		.loc 1 63 0 discriminator 4
  79 0040 B0F90030 		ldrsh	r3, [r0]
  80 0044 07EE903A 		vmov	s15, r3	@ int
  81 0048 A300     		lsls	r3, r4, #2
  82              		.loc 1 64 0 discriminator 4
  83 004a 1A1D     		adds	r2, r3, #4
  84 004c 09EB020A 		add	r10, r9, r2
  85              		.loc 1 63 0 discriminator 4
  86 0050 F8EEE77A 		vcvt.f32.s32	s15, s15
  87 0054 09EB030B 		add	fp, r9, r3
  88 0058 CBED007A 		vstr.32	s15, [fp]
  89              		.loc 1 64 0 discriminator 4
  90 005c CAF80010 		str	r1, [r10]	@ float
  91              		.loc 1 66 0 discriminator 4
  92 0060 B0F902A0 		ldrsh	r10, [r0, #2]
  93 0064 07EE90AA 		vmov	s15, r10	@ int
  94              		.loc 1 67 0 discriminator 4
  95 0068 08EB020A 		add	r10, r8, r2
  96              		.loc 1 66 0 discriminator 4
  97 006c F8EEE77A 		vcvt.f32.s32	s15, s15
  98 0070 08EB030B 		add	fp, r8, r3
  99 0074 CBED007A 		vstr.32	s15, [fp]
 100              		.loc 1 67 0 discriminator 4
 101 0078 CAF80010 		str	r1, [r10]	@ float
 102              		.loc 1 69 0 discriminator 4
 103 007c B0F904A0 		ldrsh	r10, [r0, #4]
 104 0080 07EE90AA 		vmov	s15, r10	@ int
 105              		.loc 1 70 0 discriminator 4
 106 0084 0EEB020A 		add	r10, lr, r2
 107              		.loc 1 69 0 discriminator 4
 108 0088 F8EEE77A 		vcvt.f32.s32	s15, s15
 109 008c 0EEB030B 		add	fp, lr, r3
 110 0090 CBED007A 		vstr.32	s15, [fp]
 111              		.loc 1 70 0 discriminator 4
 112 0094 CAF80010 		str	r1, [r10]	@ float
 113              		.loc 1 72 0 discriminator 4
 114 0098 B0F906A0 		ldrsh	r10, [r0, #6]
ARM GAS  C:\Users\mathi\AppData\Local\Temp\ccDZMzqV.s 			page 3


 115 009c 07EE90AA 		vmov	s15, r10	@ int
 116              		.loc 1 73 0 discriminator 4
 117 00a0 6244     		add	r2, r2, ip
 118              		.loc 1 72 0 discriminator 4
 119 00a2 F8EEE77A 		vcvt.f32.s32	s15, s15
 120              		.loc 1 75 0 discriminator 4
 121 00a6 0234     		adds	r4, r4, #2
 122              		.loc 1 72 0 discriminator 4
 123 00a8 6344     		add	r3, r3, ip
 124              		.loc 1 62 0 discriminator 4
 125 00aa 8742     		cmp	r7, r0
 126              		.loc 1 72 0 discriminator 4
 127 00ac C3ED007A 		vstr.32	s15, [r3]
 128              		.loc 1 75 0 discriminator 4
 129 00b0 A4B2     		uxth	r4, r4
 130              		.loc 1 73 0 discriminator 4
 131 00b2 1160     		str	r1, [r2]	@ float
 132              		.loc 1 62 0 discriminator 4
 133 00b4 BFD1     		bne	.L3
 134              	.L16:
 135 00b6 3480     		strh	r4, [r6]	@ movhi
 136              	.L2:
 137              	.LBE76:
 138              		.loc 1 80 0
 139 00b8 B4F5006F 		cmp	r4, #2048
 140 00bc 2ED0     		beq	.L5
 141 00be 334C     		ldr	r4, .L21+8
 142 00c0 2378     		ldrb	r3, [r4]	@ zero_extendqisi2
 143              	.L6:
 144              		.loc 1 104 0
 145 00c2 0A2B     		cmp	r3, #10
 146 00c4 06D0     		beq	.L18
 147              	.L1:
 148              		.loc 1 108 0
 149 00c6 019A     		ldr	r2, [sp, #4]
 150 00c8 2B68     		ldr	r3, [r5]
 151 00ca 9A42     		cmp	r2, r3
 152 00cc 58D1     		bne	.L19
 153 00ce 03B0     		add	sp, sp, #12
 154              		.cfi_remember_state
 155              		.cfi_def_cfa_offset 36
 156              		@ sp needed
 157 00d0 BDE8F08F 		pop	{r4, r5, r6, r7, r8, r9, r10, fp, pc}
 158              	.L18:
 159              		.cfi_restore_state
 160              	.LVL4:
 161              	.LBB77:
 162              	.LBB78:
 163              	.LBB79:
 164              	.LBB80:
 165              	.LBB81:
 166              	.LBB82:
 167              	.LBB83:
 168              		.file 2 "../../lib/e-puck2_main-processor/ChibiOS//os/ext/CMSIS/include/core_cmFunc.h"
 169              		.loc 2 546 0
 170 00d4 2023     		movs	r3, #32
 171              		.syntax unified
ARM GAS  C:\Users\mathi\AppData\Local\Temp\ccDZMzqV.s 			page 4


 172              	@ 546 "../../lib/e-puck2_main-processor/ChibiOS//os/ext/CMSIS/include/core_cmFunc.h" 1
 173 00d6 83F31188 		MSR basepri, r3
 174              	@ 0 "" 2
 175              	.LVL5:
 176              		.thumb
 177              		.syntax unified
 178              	.LBE83:
 179              	.LBE82:
 180              	.LBE81:
 181              		.file 3 "../../lib/e-puck2_main-processor/ChibiOS//os/rt/include/chsys.h"
 182              		.loc 3 349 0
 183 00da FFF7FEFF 		bl	_stats_start_measure_crit_thd
 184              	.LVL6:
 185              		.loc 3 350 0
 186 00de FFF7FEFF 		bl	_dbg_check_lock
 187              	.LVL7:
 188              	.LBE80:
 189              	.LBE79:
 190              	.LBB84:
 191              	.LBB85:
 192              		.file 4 "../../lib/e-puck2_main-processor/ChibiOS//os/rt/include/chbsem.h"
 193              		.loc 4 268 0
 194 00e2 FFF7FEFF 		bl	chDbgCheckClassI
 195              	.LVL8:
 196              		.loc 4 270 0
 197 00e6 2A48     		ldr	r0, .L21+12
 198 00e8 8368     		ldr	r3, [r0, #8]
 199 00ea 002B     		cmp	r3, #0
 200 00ec 45DD     		ble	.L20
 201              	.L8:
 202              	.LVL9:
 203              	.LBE85:
 204              	.LBE84:
 205              		.loc 4 286 0
 206 00ee FFF7FEFF 		bl	chSchRescheduleS
 207              	.LVL10:
 208              	.LBB87:
 209              	.LBB88:
 210              		.loc 3 360 0
 211 00f2 FFF7FEFF 		bl	_dbg_check_unlock
 212              	.LVL11:
 213              		.loc 3 361 0
 214 00f6 FFF7FEFF 		bl	_stats_stop_measure_crit_thd
 215              	.LVL12:
 216              		.loc 3 367 0
 217 00fa 264B     		ldr	r3, .L21+16
 218 00fc 1A68     		ldr	r2, [r3]
 219 00fe 9A42     		cmp	r2, r3
 220 0100 07D0     		beq	.L9
 221 0102 9969     		ldr	r1, [r3, #24]
 222 0104 9368     		ldr	r3, [r2, #8]
 223 0106 8A68     		ldr	r2, [r1, #8]
 224 0108 9A42     		cmp	r2, r3
 225 010a 02D2     		bcs	.L9
 226 010c 2248     		ldr	r0, .L21+20
 227 010e FFF7FEFF 		bl	chSysHalt
 228              	.LVL13:
ARM GAS  C:\Users\mathi\AppData\Local\Temp\ccDZMzqV.s 			page 5


 229              	.L9:
 230              	.LBB89:
 231              	.LBB90:
 232              	.LBB91:
 233              		.loc 2 546 0
 234 0112 0023     		movs	r3, #0
 235              		.syntax unified
 236              	@ 546 "../../lib/e-puck2_main-processor/ChibiOS//os/ext/CMSIS/include/core_cmFunc.h" 1
 237 0114 83F31188 		MSR basepri, r3
 238              	@ 0 "" 2
 239              	.LVL14:
 240              		.thumb
 241              		.syntax unified
 242              	.LBE91:
 243              	.LBE90:
 244              	.LBE89:
 245              	.LBE88:
 246              	.LBE87:
 247              	.LBE78:
 248              	.LBE77:
 249              		.loc 1 106 0
 250 0118 2370     		strb	r3, [r4]
 251              		.loc 1 108 0
 252 011a D4E7     		b	.L1
 253              	.L5:
 254              		.loc 1 83 0
 255 011c 1F49     		ldr	r1, .L21+24
 256              		.loc 1 101 0
 257 011e 1B4C     		ldr	r4, .L21+8
 258              		.loc 1 83 0
 259 0120 4FF48060 		mov	r0, #1024
 260 0124 FFF7FEFF 		bl	doFFT_optimized
 261              	.LVL15:
 262              		.loc 1 84 0
 263 0128 4FF48062 		mov	r2, #1024
 264 012c 1C49     		ldr	r1, .L21+28
 265 012e 1B48     		ldr	r0, .L21+24
 266 0130 FFF7FEFF 		bl	arm_cmplx_mag_f32
 267              	.LVL16:
 268              		.loc 1 87 0
 269 0134 1B49     		ldr	r1, .L21+32
 270 0136 4FF48060 		mov	r0, #1024
 271 013a FFF7FEFF 		bl	doFFT_optimized
 272              	.LVL17:
 273              		.loc 1 88 0
 274 013e 4FF48062 		mov	r2, #1024
 275 0142 1949     		ldr	r1, .L21+36
 276 0144 1748     		ldr	r0, .L21+32
 277 0146 FFF7FEFF 		bl	arm_cmplx_mag_f32
 278              	.LVL18:
 279              		.loc 1 92 0
 280 014a 4FF48062 		mov	r2, #1024
 281 014e 1749     		ldr	r1, .L21+40
 282 0150 1748     		ldr	r0, .L21+44
 283 0152 FFF7FEFF 		bl	arm_cmplx_mag_f32
 284              	.LVL19:
 285              		.loc 1 95 0
ARM GAS  C:\Users\mathi\AppData\Local\Temp\ccDZMzqV.s 			page 6


 286 0156 1749     		ldr	r1, .L21+48
 287 0158 4FF48060 		mov	r0, #1024
 288 015c FFF7FEFF 		bl	doFFT_optimized
 289              	.LVL20:
 290              		.loc 1 96 0
 291 0160 4FF48062 		mov	r2, #1024
 292 0164 1449     		ldr	r1, .L21+52
 293 0166 1348     		ldr	r0, .L21+48
 294 0168 FFF7FEFF 		bl	arm_cmplx_mag_f32
 295              	.LVL21:
 296              		.loc 1 101 0
 297 016c 2378     		ldrb	r3, [r4]	@ zero_extendqisi2
 298 016e 0133     		adds	r3, r3, #1
 299 0170 DBB2     		uxtb	r3, r3
 300              		.loc 1 99 0
 301 0172 0022     		movs	r2, #0
 302              		.loc 1 101 0
 303 0174 2370     		strb	r3, [r4]
 304              		.loc 1 99 0
 305 0176 3280     		strh	r2, [r6]	@ movhi
 306 0178 A3E7     		b	.L6
 307              	.LVL22:
 308              	.L20:
 309              	.LBB94:
 310              	.LBB93:
 311              	.LBB92:
 312              	.LBB86:
 313              		.loc 4 271 0
 314 017a FFF7FEFF 		bl	chSemSignalI
 315              	.LVL23:
 316 017e B6E7     		b	.L8
 317              	.LVL24:
 318              	.L19:
 319              	.LBE86:
 320              	.LBE92:
 321              	.LBE93:
 322              	.LBE94:
 323              		.loc 1 108 0
 324 0180 FFF7FEFF 		bl	__stack_chk_fail
 325              	.LVL25:
 326              	.L22:
 327              		.align	2
 328              	.L21:
 329 0184 00000000 		.word	__stack_chk_guard
 330 0188 00000000 		.word	.LANCHOR0
 331 018c 00000000 		.word	.LANCHOR1
 332 0190 00000000 		.word	.LANCHOR2
 333 0194 00000000 		.word	ch
 334 0198 00000000 		.word	.LANCHOR3
 335 019c 00000000 		.word	micLeft_cmplx_input
 336 01a0 00000000 		.word	micLeft_output
 337 01a4 00000000 		.word	micRight_cmplx_input
 338 01a8 00000000 		.word	micRight_output
 339 01ac 00000000 		.word	micFront_output
 340 01b0 00000000 		.word	micFront_cmplx_input
 341 01b4 00000000 		.word	micBack_cmplx_input
 342 01b8 00000000 		.word	micBack_output
ARM GAS  C:\Users\mathi\AppData\Local\Temp\ccDZMzqV.s 			page 7


 343              		.cfi_endproc
 344              	.LFE290:
 345              		.size	processAudioData, .-processAudioData
 346              		.section	.text.wait_send_to_computer,"ax",%progbits
 347              		.align	1
 348              		.p2align 4,,15
 349              		.global	wait_send_to_computer
 350              		.syntax unified
 351              		.thumb
 352              		.thumb_func
 353              		.fpu fpv4-sp-d16
 354              		.type	wait_send_to_computer, %function
 355              	wait_send_to_computer:
 356              	.LFB291:
 357              		.loc 1 110 0
 358              		.cfi_startproc
 359              		@ args = 0, pretend = 0, frame = 8
 360              		@ frame_needed = 0, uses_anonymous_args = 0
 361 0000 00B5     		push	{lr}
 362              		.cfi_def_cfa_offset 4
 363              		.cfi_offset 14, -4
 364 0002 084B     		ldr	r3, .L28
 365 0004 83B0     		sub	sp, sp, #12
 366              		.cfi_def_cfa_offset 16
 367              		.loc 1 110 0
 368 0006 1A68     		ldr	r2, [r3]
 369 0008 0192     		str	r2, [sp, #4]
 370              	.LVL26:
 371              	.LBB95:
 372              	.LBB96:
 373              		.loc 4 143 0
 374 000a 019A     		ldr	r2, [sp, #4]
 375 000c 1B68     		ldr	r3, [r3]
 376 000e 9A42     		cmp	r2, r3
 377 0010 05D1     		bne	.L27
 378 0012 0548     		ldr	r0, .L28+4
 379              	.LBE96:
 380              	.LBE95:
 381              		.loc 1 112 0
 382 0014 03B0     		add	sp, sp, #12
 383              		.cfi_remember_state
 384              		.cfi_def_cfa_offset 4
 385              		@ sp needed
 386 0016 5DF804EB 		ldr	lr, [sp], #4
 387              		.cfi_restore 14
 388              		.cfi_def_cfa_offset 0
 389              	.LBB98:
 390              	.LBB97:
 391              		.loc 4 143 0
 392 001a FFF7FEBF 		b	chSemWait
 393              	.LVL27:
 394              	.L27:
 395              		.cfi_restore_state
 396 001e FFF7FEFF 		bl	__stack_chk_fail
 397              	.LVL28:
 398              	.L29:
 399 0022 00BF     		.align	2
ARM GAS  C:\Users\mathi\AppData\Local\Temp\ccDZMzqV.s 			page 8


 400              	.L28:
 401 0024 00000000 		.word	__stack_chk_guard
 402 0028 00000000 		.word	.LANCHOR2
 403              	.LBE97:
 404              	.LBE98:
 405              		.cfi_endproc
 406              	.LFE291:
 407              		.size	wait_send_to_computer, .-wait_send_to_computer
 408              		.section	.text.get_audio_buffer_ptr,"ax",%progbits
 409              		.align	1
 410              		.p2align 4,,15
 411              		.global	get_audio_buffer_ptr
 412              		.syntax unified
 413              		.thumb
 414              		.thumb_func
 415              		.fpu fpv4-sp-d16
 416              		.type	get_audio_buffer_ptr, %function
 417              	get_audio_buffer_ptr:
 418              	.LFB292:
 419              		.loc 1 114 0
 420              		.cfi_startproc
 421              		@ args = 0, pretend = 0, frame = 8
 422              		@ frame_needed = 0, uses_anonymous_args = 0
 423              	.LVL29:
 424 0000 00B5     		push	{lr}
 425              		.cfi_def_cfa_offset 4
 426              		.cfi_offset 14, -4
 427 0002 164B     		ldr	r3, .L43
 428 0004 83B0     		sub	sp, sp, #12
 429              		.cfi_def_cfa_offset 16
 430              		.loc 1 114 0
 431 0006 1A68     		ldr	r2, [r3]
 432 0008 0192     		str	r2, [sp, #4]
 433              		.loc 1 115 0
 434 000a 88B1     		cbz	r0, .L33
 435              		.loc 1 117 0
 436 000c 0128     		cmp	r0, #1
 437 000e 17D0     		beq	.L34
 438              		.loc 1 119 0
 439 0010 0228     		cmp	r0, #2
 440 0012 19D0     		beq	.L35
 441              		.loc 1 121 0
 442 0014 0328     		cmp	r0, #3
 443 0016 15D0     		beq	.L36
 444              		.loc 1 123 0
 445 0018 0428     		cmp	r0, #4
 446 001a 17D0     		beq	.L37
 447              		.loc 1 125 0
 448 001c 0528     		cmp	r0, #5
 449 001e 17D0     		beq	.L38
 450              	.LVL30:
 451              	.LBB101:
 452              	.LBB102:
 453              		.loc 1 127 0
 454 0020 0628     		cmp	r0, #6
 455 0022 17D0     		beq	.L39
 456              		.loc 1 132 0
ARM GAS  C:\Users\mathi\AppData\Local\Temp\ccDZMzqV.s 			page 9


 457 0024 0E4A     		ldr	r2, .L43+4
 458              		.loc 1 129 0
 459 0026 0728     		cmp	r0, #7
 460              		.loc 1 132 0
 461 0028 0CBF     		ite	eq
 462 002a 1046     		moveq	r0, r2
 463              	.LVL31:
 464 002c 0020     		movne	r0, #0
 465 002e 00E0     		b	.L30
 466              	.LVL32:
 467              	.L33:
 468              	.LBE102:
 469              	.LBE101:
 470              		.loc 1 116 0
 471 0030 0C48     		ldr	r0, .L43+8
 472              	.LVL33:
 473              	.L30:
 474              		.loc 1 134 0
 475 0032 019A     		ldr	r2, [sp, #4]
 476 0034 1B68     		ldr	r3, [r3]
 477 0036 9A42     		cmp	r2, r3
 478 0038 0ED1     		bne	.L42
 479 003a 03B0     		add	sp, sp, #12
 480              		.cfi_remember_state
 481              		.cfi_def_cfa_offset 4
 482              		@ sp needed
 483 003c 5DF804FB 		ldr	pc, [sp], #4
 484              	.LVL34:
 485              	.L34:
 486              		.cfi_restore_state
 487              		.loc 1 118 0
 488 0040 0948     		ldr	r0, .L43+12
 489              	.LVL35:
 490 0042 F6E7     		b	.L30
 491              	.LVL36:
 492              	.L36:
 493              		.loc 1 122 0
 494 0044 0948     		ldr	r0, .L43+16
 495              	.LVL37:
 496 0046 F4E7     		b	.L30
 497              	.LVL38:
 498              	.L35:
 499              		.loc 1 120 0
 500 0048 0948     		ldr	r0, .L43+20
 501              	.LVL39:
 502 004a F2E7     		b	.L30
 503              	.LVL40:
 504              	.L37:
 505              		.loc 1 124 0
 506 004c 0948     		ldr	r0, .L43+24
 507              	.LVL41:
 508 004e F0E7     		b	.L30
 509              	.LVL42:
 510              	.L38:
 511              		.loc 1 126 0
 512 0050 0948     		ldr	r0, .L43+28
 513              	.LVL43:
ARM GAS  C:\Users\mathi\AppData\Local\Temp\ccDZMzqV.s 			page 10


 514 0052 EEE7     		b	.L30
 515              	.LVL44:
 516              	.L39:
 517              	.LBB104:
 518              	.LBB103:
 519              		.loc 1 128 0
 520 0054 0948     		ldr	r0, .L43+32
 521              	.LVL45:
 522 0056 ECE7     		b	.L30
 523              	.LVL46:
 524              	.L42:
 525              	.LBE103:
 526              	.LBE104:
 527              		.loc 1 134 0
 528 0058 FFF7FEFF 		bl	__stack_chk_fail
 529              	.LVL47:
 530              	.L44:
 531              		.align	2
 532              	.L43:
 533 005c 00000000 		.word	__stack_chk_guard
 534 0060 00000000 		.word	micBack_output
 535 0064 00000000 		.word	micLeft_cmplx_input
 536 0068 00000000 		.word	micRight_cmplx_input
 537 006c 00000000 		.word	micBack_cmplx_input
 538 0070 00000000 		.word	micFront_cmplx_input
 539 0074 00000000 		.word	micLeft_output
 540 0078 00000000 		.word	micRight_output
 541 007c 00000000 		.word	micFront_output
 542              		.cfi_endproc
 543              	.LFE292:
 544              		.size	get_audio_buffer_ptr, .-get_audio_buffer_ptr
 545              		.section	.bss.index.14171,"aw",%nobits
 546              		.align	1
 547              		.set	.LANCHOR0,. + 0
 548              		.type	index.14171, %object
 549              		.size	index.14171, 2
 550              	index.14171:
 551 0000 0000     		.space	2
 552              		.section	.bss.micBack_cmplx_input,"aw",%nobits
 553              		.align	2
 554              		.type	micBack_cmplx_input, %object
 555              		.size	micBack_cmplx_input, 8192
 556              	micBack_cmplx_input:
 557 0000 00000000 		.space	8192
 557      00000000 
 557      00000000 
 557      00000000 
 557      00000000 
 558              		.section	.bss.micBack_output,"aw",%nobits
 559              		.align	2
 560              		.type	micBack_output, %object
 561              		.size	micBack_output, 4096
 562              	micBack_output:
 563 0000 00000000 		.space	4096
 563      00000000 
 563      00000000 
 563      00000000 
ARM GAS  C:\Users\mathi\AppData\Local\Temp\ccDZMzqV.s 			page 11


 563      00000000 
 564              		.section	.bss.micFront_cmplx_input,"aw",%nobits
 565              		.align	2
 566              		.type	micFront_cmplx_input, %object
 567              		.size	micFront_cmplx_input, 8192
 568              	micFront_cmplx_input:
 569 0000 00000000 		.space	8192
 569      00000000 
 569      00000000 
 569      00000000 
 569      00000000 
 570              		.section	.bss.micFront_output,"aw",%nobits
 571              		.align	2
 572              		.type	micFront_output, %object
 573              		.size	micFront_output, 4096
 574              	micFront_output:
 575 0000 00000000 		.space	4096
 575      00000000 
 575      00000000 
 575      00000000 
 575      00000000 
 576              		.section	.bss.micLeft_cmplx_input,"aw",%nobits
 577              		.align	2
 578              		.type	micLeft_cmplx_input, %object
 579              		.size	micLeft_cmplx_input, 8192
 580              	micLeft_cmplx_input:
 581 0000 00000000 		.space	8192
 581      00000000 
 581      00000000 
 581      00000000 
 581      00000000 
 582              		.section	.bss.micLeft_output,"aw",%nobits
 583              		.align	2
 584              		.type	micLeft_output, %object
 585              		.size	micLeft_output, 4096
 586              	micLeft_output:
 587 0000 00000000 		.space	4096
 587      00000000 
 587      00000000 
 587      00000000 
 587      00000000 
 588              		.section	.bss.micRight_cmplx_input,"aw",%nobits
 589              		.align	2
 590              		.type	micRight_cmplx_input, %object
 591              		.size	micRight_cmplx_input, 8192
 592              	micRight_cmplx_input:
 593 0000 00000000 		.space	8192
 593      00000000 
 593      00000000 
 593      00000000 
 593      00000000 
 594              		.section	.bss.micRight_output,"aw",%nobits
 595              		.align	2
 596              		.type	micRight_output, %object
 597              		.size	micRight_output, 4096
 598              	micRight_output:
 599 0000 00000000 		.space	4096
ARM GAS  C:\Users\mathi\AppData\Local\Temp\ccDZMzqV.s 			page 12


 599      00000000 
 599      00000000 
 599      00000000 
 599      00000000 
 600              		.section	.bss.num_FFTs.14176,"aw",%nobits
 601              		.set	.LANCHOR1,. + 0
 602              		.type	num_FFTs.14176, %object
 603              		.size	num_FFTs.14176, 1
 604              	num_FFTs.14176:
 605 0000 00       		.space	1
 606              		.section	.data.sendToComputer_sem,"aw",%progbits
 607              		.align	2
 608              		.set	.LANCHOR2,. + 0
 609              		.type	sendToComputer_sem, %object
 610              		.size	sendToComputer_sem, 12
 611              	sendToComputer_sem:
 612 0000 00000000 		.word	sendToComputer_sem
 613 0004 00000000 		.word	sendToComputer_sem
 614 0008 00000000 		.word	0
 615              		.section	.rodata.__func__.7153,"a",%progbits
 616              		.align	2
 617              		.set	.LANCHOR3,. + 0
 618              		.type	__func__.7153, %object
 619              		.size	__func__.7153, 12
 620              	__func__.7153:
 621 0000 63685379 		.ascii	"chSysUnlock\000"
 621      73556E6C 
 621      6F636B00 
 622              		.text
 623              	.Letext0:
 624              		.file 5 "c:\\eclipse_e-puck2\\tools\\gcc-arm-none-eabi-7-2017-q4-major-win32\\lib\\gcc\\arm-none-e
 625              		.file 6 "c:\\eclipse_e-puck2\\tools\\gcc-arm-none-eabi-7-2017-q4-major-win32\\arm-none-eabi\\inclu
 626              		.file 7 "c:\\eclipse_e-puck2\\tools\\gcc-arm-none-eabi-7-2017-q4-major-win32\\arm-none-eabi\\inclu
 627              		.file 8 "../../lib/e-puck2_main-processor/ChibiOS//os/rt/ports/ARMCMx/compilers/GCC/chtypes.h"
 628              		.file 9 "../../lib/e-puck2_main-processor/ChibiOS//os/rt/include/chsystypes.h"
 629              		.file 10 "../../lib/e-puck2_main-processor/ChibiOS//os/rt/include/chschd.h"
 630              		.file 11 "../../lib/e-puck2_main-processor/ChibiOS//os/ext/CMSIS/include/core_cm4.h"
 631              		.file 12 "../../lib/e-puck2_main-processor/ChibiOS//os/ext/CMSIS/ST/system_stm32f4xx.h"
 632              		.file 13 "../../lib/e-puck2_main-processor/ChibiOS//os/ext/CMSIS/ST/stm32f407xx.h"
 633              		.file 14 "../../lib/e-puck2_main-processor/ChibiOS//os/rt/ports/ARMCMx/chcore.h"
 634              		.file 15 "../../lib/e-puck2_main-processor/ChibiOS//os/rt/ports/ARMCMx/chcore_v7m.h"
 635              		.file 16 "../../lib/e-puck2_main-processor/ChibiOS//os/rt/include/chdebug.h"
 636              		.file 17 "../../lib/e-puck2_main-processor/ChibiOS//os/rt/include/chtm.h"
 637              		.file 18 "../../lib/e-puck2_main-processor/ChibiOS//os/rt/include/chstats.h"
 638              		.file 19 "../../lib/e-puck2_main-processor/ChibiOS//os/rt/include/chsem.h"
 639              		.file 20 "../../lib/e-puck2_main-processor/ChibiOS//os/rt/include/chmtx.h"
 640              		.file 21 "../../lib/e-puck2_main-processor/ChibiOS//os/rt/include/chregistry.h"
 641              		.file 22 "../../lib/e-puck2_main-processor/ChibiOS//os/rt/include/chevents.h"
 642              		.file 23 "../../lib/e-puck2_main-processor/ChibiOS//os/rt/include/chqueues.h"
 643              		.file 24 "../../lib/e-puck2_main-processor/ChibiOS//os/hal/ports/STM32/STM32F4xx/stm32_dma.h"
 644              		.file 25 "../../lib/e-puck2_main-processor/ChibiOS//os/hal/include/hal_ioblock.h"
 645              		.file 26 "../../lib/e-puck2_main-processor/ChibiOS//os/hal/ports/STM32/LLD/GPIOv2/pal_lld.h"
 646              		.file 27 "../../lib/e-puck2_main-processor/ChibiOS//os/hal/include/adc.h"
 647              		.file 28 "../../lib/e-puck2_main-processor/ChibiOS//os/hal/ports/STM32/STM32F4xx/adc_lld.h"
 648              		.file 29 "../../lib/e-puck2_main-processor/ChibiOS//os/hal/include/can.h"
 649              		.file 30 "../../lib/e-puck2_main-processor/ChibiOS//os/hal/ports/STM32/LLD/can_lld.h"
 650              		.file 31 "../../lib/e-puck2_main-processor/ChibiOS//os/hal/include/dac.h"
ARM GAS  C:\Users\mathi\AppData\Local\Temp\ccDZMzqV.s 			page 13


 651              		.file 32 "../../lib/e-puck2_main-processor/ChibiOS//os/hal/ports/STM32/LLD/DACv1/dac_lld.h"
 652              		.file 33 "../../lib/e-puck2_main-processor/ChibiOS//os/hal/include/ext.h"
 653              		.file 34 "../../lib/e-puck2_main-processor/ChibiOS//os/hal/ports/STM32/LLD/ext_lld.h"
 654              		.file 35 "../../lib/e-puck2_main-processor/ChibiOS//os/hal/include/gpt.h"
 655              		.file 36 "../../lib/e-puck2_main-processor/ChibiOS//os/hal/ports/STM32/LLD/TIMv1/gpt_lld.h"
 656              		.file 37 "../../lib/e-puck2_main-processor/ChibiOS//os/hal/ports/STM32/LLD/TIMv1/stm32_tim.h"
 657              		.file 38 "../../lib/e-puck2_main-processor/ChibiOS//os/hal/include/i2c.h"
 658              		.file 39 "../../lib/e-puck2_main-processor/ChibiOS//os/hal/ports/STM32/LLD/I2Cv1/i2c_lld.h"
 659              		.file 40 "../../lib/e-puck2_main-processor/ChibiOS//os/hal/include/i2s.h"
 660              		.file 41 "../../lib/e-puck2_main-processor/ChibiOS//os/hal/ports/STM32/LLD/SPIv1/i2s_lld.h"
 661              		.file 42 "../../lib/e-puck2_main-processor/ChibiOS//os/hal/include/pwm.h"
 662              		.file 43 "../../lib/e-puck2_main-processor/ChibiOS//os/hal/ports/STM32/LLD/TIMv1/pwm_lld.h"
 663              		.file 44 "../../lib/e-puck2_main-processor/ChibiOS//os/hal/include/serial.h"
 664              		.file 45 "../../lib/e-puck2_main-processor/ChibiOS//os/hal/ports/STM32/LLD/USARTv1/serial_lld.h"
 665              		.file 46 "../../lib/e-puck2_main-processor/ChibiOS//os/hal/include/sdc.h"
 666              		.file 47 "../../lib/e-puck2_main-processor/ChibiOS//os/hal/ports/STM32/LLD/sdc_lld.h"
 667              		.file 48 "../../lib/e-puck2_main-processor/ChibiOS//os/hal/include/spi.h"
 668              		.file 49 "../../lib/e-puck2_main-processor/ChibiOS//os/hal/ports/STM32/LLD/SPIv1/spi_lld.h"
 669              		.file 50 "../../lib/e-puck2_main-processor/ChibiOS//os/hal/include/usb.h"
 670              		.file 51 "../../lib/e-puck2_main-processor/ChibiOS//os/hal/ports/STM32/LLD/OTGv1/usb_lld.h"
 671              		.file 52 "../../lib/e-puck2_main-processor/ChibiOS//os/hal/ports/STM32/LLD/OTGv1/stm32_otg.h"
 672              		.file 53 "../../lib/e-puck2_main-processor/ChibiOS//os/hal/include/serial_usb.h"
 673              		.file 54 "../../lib/e-puck2_main-processor/ChibiOS_ext/os/hal/include/../ports/STM32/STM32F4xx/dcm
 674              		.file 55 "c:\\eclipse_e-puck2\\tools\\gcc-arm-none-eabi-7-2017-q4-major-win32\\arm-none-eabi\\incl
 675              		.file 56 "c:\\eclipse_e-puck2\\tools\\gcc-arm-none-eabi-7-2017-q4-major-win32\\arm-none-eabi\\incl
 676              		.file 57 "c:\\eclipse_e-puck2\\tools\\gcc-arm-none-eabi-7-2017-q4-major-win32\\arm-none-eabi\\incl
 677              		.file 58 "../../lib/e-puck2_main-processor/src/msgbus/messagebus.h"
 678              		.file 59 "c:\\eclipse_e-puck2\\tools\\gcc-arm-none-eabi-7-2017-q4-major-win32\\arm-none-eabi\\incl
 679              		.file 60 "c:\\eclipse_e-puck2\\tools\\gcc-arm-none-eabi-7-2017-q4-major-win32\\arm-none-eabi\\incl
 680              		.file 61 "../../lib/e-puck2_main-processor/src/parameter/parameter.h"
 681              		.file 62 "./main.h"
 682              		.file 63 "../../lib/e-puck2_main-processor/src/usbcfg.h"
 683              		.file 64 "./audio_processing.h"
 684              		.file 65 "c:\\eclipse_e-puck2\\tools\\gcc-arm-none-eabi-7-2017-q4-major-win32\\arm-none-eabi\\incl
 685              		.file 66 "./fft.h"
 686              		.file 67 "../../lib/e-puck2_main-processor/ChibiOS//os/ext/CMSIS/include/arm_math.h"