ARM GAS  C:\Users\mathi\AppData\Local\Temp\ccZGjVHc.s 			page 1


   1              		.cpu cortex-m4
   2              		.eabi_attribute 27, 1
   3              		.eabi_attribute 28, 1
   4              		.eabi_attribute 20, 1
   5              		.eabi_attribute 21, 1
   6              		.eabi_attribute 23, 3
   7              		.eabi_attribute 24, 1
   8              		.eabi_attribute 25, 1
   9              		.eabi_attribute 26, 1
  10              		.eabi_attribute 30, 2
  11              		.eabi_attribute 34, 1
  12              		.eabi_attribute 18, 4
  13              		.file	"imu.c"
  14              		.text
  15              	.Ltext0:
  16              		.cfi_sections	.debug_frame
  17              		.section	.text.imu_compute_units,"ax",%progbits
  18              		.align	1
  19              		.p2align 4,,15
  20              		.global	imu_compute_units
  21              		.syntax unified
  22              		.thumb
  23              		.thumb_func
  24              		.fpu fpv4-sp-d16
  25              		.type	imu_compute_units, %function
  26              	imu_compute_units:
  27              	.LFB256:
  28              		.file 1 "imu.c"
  29              		.loc 1 34 0
  30              		.cfi_startproc
  31              		@ args = 0, pretend = 0, frame = 0
  32              		@ frame_needed = 0, uses_anonymous_args = 0
  33              		@ link register save eliminated.
  34              	.LVL0:
  35 0000 1549     		ldr	r1, .L6
  36              	.LBB38:
  37              		.loc 1 40 0
  38 0002 DFED165A 		vldr.32	s11, .L6+4
  39 0006 9FED166A 		vldr.32	s12, .L6+8
  40              		.loc 1 42 0
  41 000a DFED166A 		vldr.32	s13, .L6+12
  42 000e A1F12800 		sub	r0, r1, #40
  43              	.LBE38:
  44              		.loc 1 34 0
  45 0012 70B4     		push	{r4, r5, r6}
  46              		.cfi_def_cfa_offset 12
  47              		.cfi_offset 4, -12
  48              		.cfi_offset 5, -8
  49              		.cfi_offset 6, -4
  50 0014 00F10C06 		add	r6, r0, #12
  51              	.LVL1:
  52              	.L2:
  53              	.LBB39:
  54              		.loc 1 39 0 discriminator 3
  55 0018 31F9023B 		ldrsh	r3, [r1], #2
  56              		.loc 1 40 0 discriminator 3
  57 001c B1F90A50 		ldrsh	r5, [r1, #10]
ARM GAS  C:\Users\mathi\AppData\Local\Temp\ccZGjVHc.s 			page 2


  58              		.loc 1 41 0 discriminator 3
  59 0020 B1F90420 		ldrsh	r2, [r1, #4]
  60              		.loc 1 42 0 discriminator 3
  61 0024 B1F91040 		ldrsh	r4, [r1, #16]
  62              		.loc 1 40 0 discriminator 3
  63 0028 5B1B     		subs	r3, r3, r5
  64 002a 07EE903A 		vmov	s15, r3	@ int
  65              		.loc 1 39 0 discriminator 3
  66 002e F8EEE77A 		vcvt.f32.s32	s15, s15
  67              		.loc 1 42 0 discriminator 3
  68 0032 131B     		subs	r3, r2, r4
  69 0034 07EE103A 		vmov	s14, r3	@ int
  70              		.loc 1 40 0 discriminator 3
  71 0038 67EEA57A 		vmul.f32	s15, s15, s11
  72              		.loc 1 41 0 discriminator 3
  73 003c B8EEC77A 		vcvt.f32.s32	s14, s14
  74              		.loc 1 40 0 discriminator 3
  75 0040 67EE867A 		vmul.f32	s15, s15, s12
  76              		.loc 1 42 0 discriminator 3
  77 0044 27EE267A 		vmul.f32	s14, s14, s13
  78              		.loc 1 39 0 discriminator 3
  79 0048 E0EC017A 		vstmia.32	r0!, {s15}
  80              		.loc 1 38 0 discriminator 3
  81 004c 8642     		cmp	r6, r0
  82              		.loc 1 41 0 discriminator 3
  83 004e 80ED027A 		vstr.32	s14, [r0, #8]
  84              		.loc 1 38 0 discriminator 3
  85 0052 E1D1     		bne	.L2
  86              	.LBE39:
  87              		.loc 1 44 0
  88 0054 70BC     		pop	{r4, r5, r6}
  89              		.cfi_restore 6
  90              		.cfi_restore 5
  91              		.cfi_restore 4
  92              		.cfi_def_cfa_offset 0
  93 0056 7047     		bx	lr
  94              	.L7:
  95              		.align	2
  96              	.L6:
  97 0058 28000000 		.word	.LANCHOR0+40
  98 005c 00008038 		.word	947912704
  99 0060 0AE81C41 		.word	1092413450
 100 0064 58A00B39 		.word	957063256
 101              		.cfi_endproc
 102              	.LFE256:
 103              		.size	imu_compute_units, .-imu_compute_units
 104              		.section	.text.imu_reader_thd,"ax",%progbits
 105              		.align	1
 106              		.p2align 4,,15
 107              		.syntax unified
 108              		.thumb
 109              		.thumb_func
 110              		.fpu fpv4-sp-d16
 111              		.type	imu_reader_thd, %function
 112              	imu_reader_thd:
 113              	.LFB257:
 114              		.loc 1 49 0
ARM GAS  C:\Users\mathi\AppData\Local\Temp\ccZGjVHc.s 			page 3


 115              		.cfi_startproc
 116              		@ args = 0, pretend = 0, frame = 120
 117              		@ frame_needed = 0, uses_anonymous_args = 0
 118              	.LVL2:
 119 0000 2DE9F043 		push	{r4, r5, r6, r7, r8, r9, lr}
 120              		.cfi_def_cfa_offset 28
 121              		.cfi_offset 4, -28
 122              		.cfi_offset 5, -24
 123              		.cfi_offset 6, -20
 124              		.cfi_offset 7, -16
 125              		.cfi_offset 8, -12
 126              		.cfi_offset 9, -8
 127              		.cfi_offset 14, -4
 128              	.LBB60:
 129              	.LBB61:
 130              		.file 2 "../../lib/ChibiOS/os/rt/include/chregistry.h"
 131              		.loc 2 135 0
 132 0004 2F4C     		ldr	r4, .L19
 133 0006 3049     		ldr	r1, .L19+4
 134 0008 A269     		ldr	r2, [r4, #24]
 135              	.LBE61:
 136              	.LBE60:
 137              		.loc 1 57 0
 138 000a 304B     		ldr	r3, .L19+8
 139              	.LBB63:
 140              	.LBB62:
 141              		.loc 2 135 0
 142 000c 9161     		str	r1, [r2, #24]
 143              	.LVL3:
 144              	.LBE62:
 145              	.LBE63:
 146              		.loc 1 49 0
 147 000e A1B0     		sub	sp, sp, #132
 148              		.cfi_def_cfa_offset 160
 149              		.loc 1 55 0
 150 0010 04A8     		add	r0, sp, #16
 151              	.LVL4:
 152              		.loc 1 56 0
 153 0012 02AD     		add	r5, sp, #8
 154              		.loc 1 57 0
 155 0014 5022     		movs	r2, #80
 156 0016 0146     		mov	r1, r0
 157 0018 0092     		str	r2, [sp]
 158              		.loc 1 55 0
 159 001a CDE90400 		strd	r0, r0, [sp, #16]
 160              		.loc 1 57 0
 161 001e 2A46     		mov	r2, r5
 162 0020 09A8     		add	r0, sp, #36
 163              		.loc 1 56 0
 164 0022 CDE90255 		strd	r5, r5, [sp, #8]
 165              		.loc 1 55 0
 166 0026 0025     		movs	r5, #0
 167 0028 CDE90655 		strd	r5, r5, [sp, #24]
 168 002c 0895     		str	r5, [sp, #32]
 169              		.loc 1 57 0
 170 002e FFF7FEFF 		bl	messagebus_topic_init
 171              	.LVL5:
ARM GAS  C:\Users\mathi\AppData\Local\Temp\ccZGjVHc.s 			page 4


 172              		.loc 1 59 0
 173 0032 274A     		ldr	r2, .L19+12
 174 0034 2748     		ldr	r0, .L19+16
 175 0036 09A9     		add	r1, sp, #36
 176 0038 FFF7FEFF 		bl	messagebus_advertise_topic
 177              	.LVL6:
 178              	.LBB64:
 179              	.LBB65:
 180              		.file 3 "../../lib/ChibiOS/os/rt/include/chthreads.h"
 181              		.loc 3 233 0
 182 003c A369     		ldr	r3, [r4, #24]
 183              	.LBE65:
 184              	.LBE64:
 185              		.loc 1 63 0
 186 003e 93F82130 		ldrb	r3, [r3, #33]	@ zero_extendqisi2
 187 0042 5A07     		lsls	r2, r3, #29
 188 0044 3AD4     		bmi	.L8
 189              		.loc 1 68 0
 190 0046 DFF89880 		ldr	r8, .L19+28
 191 004a 234F     		ldr	r7, .L19+20
 192              	.LBB67:
 193              	.LBB68:
 194              	.LBB69:
 195              	.LBB70:
 196              		.file 4 "../../lib/ChibiOS/os/rt/include/chsys.h"
 197              		.loc 4 367 0
 198 004c DFF89490 		ldr	r9, .L19+32
 199              	.LBE70:
 200              	.LBE69:
 201              	.LBE68:
 202              	.LBE67:
 203              		.loc 1 75 0
 204 0050 A8F14C06 		sub	r6, r8, #76
 205 0054 0DE0     		b	.L12
 206              	.L11:
 207 0056 5022     		movs	r2, #80
 208 0058 3146     		mov	r1, r6
 209 005a 09A8     		add	r0, sp, #36
 210 005c FFF7FEFF 		bl	messagebus_topic_publish
 211              	.LVL7:
 212              		.loc 1 77 0
 213 0060 291D     		adds	r1, r5, #4
 214 0062 2846     		mov	r0, r5
 215 0064 FFF7FEFF 		bl	chThdSleepUntilWindowed
 216              	.LVL8:
 217              	.LBB84:
 218              	.LBB66:
 219              		.loc 3 233 0
 220 0068 A369     		ldr	r3, [r4, #24]
 221              	.LBE66:
 222              	.LBE84:
 223              		.loc 1 63 0
 224 006a 93F82130 		ldrb	r3, [r3, #33]	@ zero_extendqisi2
 225 006e 5B07     		lsls	r3, r3, #29
 226 0070 24D4     		bmi	.L8
 227              	.L12:
 228              	.LVL9:
ARM GAS  C:\Users\mathi\AppData\Local\Temp\ccZGjVHc.s 			page 5


 229              	.LBB85:
 230              	.LBB83:
 231              	.LBB75:
 232              	.LBB76:
 233              	.LBB77:
 234              	.LBB78:
 235              	.LBB79:
 236              		.file 5 "../../lib/ChibiOS/os/ext/CMSIS/include/core_cmFunc.h"
 237              		.loc 5 546 0
 238 0072 2023     		movs	r3, #32
 239              		.syntax unified
 240              	@ 546 "../../lib/ChibiOS/os/ext/CMSIS/include/core_cmFunc.h" 1
 241 0074 83F31188 		MSR basepri, r3
 242              	@ 0 "" 2
 243              	.LVL10:
 244              		.thumb
 245              		.syntax unified
 246              	.LBE79:
 247              	.LBE78:
 248              	.LBE77:
 249              		.loc 4 349 0
 250 0078 FFF7FEFF 		bl	_stats_start_measure_crit_thd
 251              	.LVL11:
 252              		.loc 4 350 0
 253 007c FFF7FEFF 		bl	_dbg_check_lock
 254              	.LVL12:
 255              	.LBE76:
 256              	.LBE75:
 257              	.LBB80:
 258              	.LBB81:
 259              		.file 6 "../../lib/ChibiOS/os/rt/include/chvt.h"
 260              		.loc 6 231 0
 261 0080 A56A     		ldr	r5, [r4, #40]
 262              	.LBE81:
 263              	.LBE80:
 264              	.LBB82:
 265              	.LBB74:
 266              		.loc 4 360 0
 267 0082 FFF7FEFF 		bl	_dbg_check_unlock
 268              	.LVL13:
 269              		.loc 4 361 0
 270 0086 FFF7FEFF 		bl	_stats_stop_measure_crit_thd
 271              	.LVL14:
 272              		.loc 4 367 0
 273 008a 2368     		ldr	r3, [r4]
 274 008c A342     		cmp	r3, r4
 275 008e 07D0     		beq	.L10
 276 0090 A269     		ldr	r2, [r4, #24]
 277 0092 9B68     		ldr	r3, [r3, #8]
 278 0094 9268     		ldr	r2, [r2, #8]
 279 0096 9A42     		cmp	r2, r3
 280 0098 02D2     		bcs	.L10
 281 009a 4846     		mov	r0, r9
 282 009c FFF7FEFF 		bl	chSysHalt
 283              	.LVL15:
 284              	.L10:
 285              	.LBB71:
ARM GAS  C:\Users\mathi\AppData\Local\Temp\ccZGjVHc.s 			page 6


 286              	.LBB72:
 287              	.LBB73:
 288              		.loc 5 546 0
 289 00a0 0023     		movs	r3, #0
 290              		.syntax unified
 291              	@ 546 "../../lib/ChibiOS/os/ext/CMSIS/include/core_cmFunc.h" 1
 292 00a2 83F31188 		MSR basepri, r3
 293              	@ 0 "" 2
 294              	.LVL16:
 295              		.thumb
 296              		.syntax unified
 297              	.LBE73:
 298              	.LBE72:
 299              	.LBE71:
 300              	.LBE74:
 301              	.LBE82:
 302              	.LBE83:
 303              	.LBE85:
 304              		.loc 1 66 0
 305 00a6 3B78     		ldrb	r3, [r7]	@ zero_extendqisi2
 306 00a8 002B     		cmp	r3, #0
 307 00aa D4D0     		beq	.L11
 308              		.loc 1 68 0
 309 00ac 0B49     		ldr	r1, .L19+24
 310 00ae 4246     		mov	r2, r8
 311 00b0 881D     		adds	r0, r1, #6
 312 00b2 FFF7FEFF 		bl	mpu9250_read
 313              	.LVL17:
 314              		.loc 1 71 0
 315 00b6 FFF7FEFF 		bl	imu_compute_units
 316              	.LVL18:
 317 00ba CCE7     		b	.L11
 318              	.L8:
 319              		.loc 1 80 0
 320 00bc 21B0     		add	sp, sp, #132
 321              		.cfi_def_cfa_offset 28
 322              		@ sp needed
 323 00be BDE8F083 		pop	{r4, r5, r6, r7, r8, r9, pc}
 324              	.L20:
 325 00c2 00BF     		.align	2
 326              	.L19:
 327 00c4 00000000 		.word	ch
 328 00c8 00000000 		.word	.LANCHOR1
 329 00cc 00000000 		.word	.LANCHOR0
 330 00d0 00000000 		.word	.LC0
 331 00d4 00000000 		.word	bus
 332 00d8 00000000 		.word	.LANCHOR3
 333 00dc 28000000 		.word	.LANCHOR0+40
 334 00e0 4C000000 		.word	.LANCHOR0+76
 335 00e4 00000000 		.word	.LANCHOR2
 336              		.cfi_endproc
 337              	.LFE257:
 338              		.size	imu_reader_thd, .-imu_reader_thd
 339              		.section	.text.imu_start,"ax",%progbits
 340              		.align	1
 341              		.p2align 4,,15
 342              		.global	imu_start
ARM GAS  C:\Users\mathi\AppData\Local\Temp\ccZGjVHc.s 			page 7


 343              		.syntax unified
 344              		.thumb
 345              		.thumb_func
 346              		.fpu fpv4-sp-d16
 347              		.type	imu_start, %function
 348              	imu_start:
 349              	.LFB258:
 350              		.loc 1 86 0
 351              		.cfi_startproc
 352              		@ args = 0, pretend = 0, frame = 0
 353              		@ frame_needed = 0, uses_anonymous_args = 0
 354              	.LVL19:
 355 0000 00B5     		push	{lr}
 356              		.cfi_def_cfa_offset 4
 357              		.cfi_offset 14, -4
 358              		.loc 1 89 0
 359 0002 4FF4C840 		mov	r0, #25600
 360              		.loc 1 86 0
 361 0006 83B0     		sub	sp, sp, #12
 362              		.cfi_def_cfa_offset 16
 363              		.loc 1 89 0
 364 0008 FFF7FEFF 		bl	mpu9250_setup
 365              	.LVL20:
 366              		.loc 1 100 0
 367 000c 10B9     		cbnz	r0, .L22
 368              		.loc 1 101 0
 369 000e 084B     		ldr	r3, .L24
 370 0010 0122     		movs	r2, #1
 371 0012 1A70     		strb	r2, [r3]
 372              	.L22:
 373              		.loc 1 105 0
 374 0014 0023     		movs	r3, #0
 375 0016 0093     		str	r3, [sp]
 376 0018 4022     		movs	r2, #64
 377 001a 064B     		ldr	r3, .L24+4
 378 001c 0648     		ldr	r0, .L24+8
 379              	.LVL21:
 380 001e 4FF4AF61 		mov	r1, #1400
 381 0022 FFF7FEFF 		bl	chThdCreateStatic
 382              	.LVL22:
 383 0026 054B     		ldr	r3, .L24+12
 384 0028 1860     		str	r0, [r3]
 385              		.loc 1 107 0
 386 002a 03B0     		add	sp, sp, #12
 387              		.cfi_def_cfa_offset 4
 388              		@ sp needed
 389 002c 5DF804FB 		ldr	pc, [sp], #4
 390              	.L25:
 391              		.align	2
 392              	.L24:
 393 0030 00000000 		.word	.LANCHOR3
 394 0034 00000000 		.word	imu_reader_thd
 395 0038 00000000 		.word	.LANCHOR4
 396 003c 00000000 		.word	.LANCHOR5
 397              		.cfi_endproc
 398              	.LFE258:
 399              		.size	imu_start, .-imu_start
ARM GAS  C:\Users\mathi\AppData\Local\Temp\ccZGjVHc.s 			page 8


 400              		.section	.text.imu_stop,"ax",%progbits
 401              		.align	1
 402              		.p2align 4,,15
 403              		.global	imu_stop
 404              		.syntax unified
 405              		.thumb
 406              		.thumb_func
 407              		.fpu fpv4-sp-d16
 408              		.type	imu_stop, %function
 409              	imu_stop:
 410              	.LFB259:
 411              		.loc 1 109 0
 412              		.cfi_startproc
 413              		@ args = 0, pretend = 0, frame = 0
 414              		@ frame_needed = 0, uses_anonymous_args = 0
 415 0000 10B5     		push	{r4, lr}
 416              		.cfi_def_cfa_offset 8
 417              		.cfi_offset 4, -8
 418              		.cfi_offset 14, -4
 419              		.loc 1 110 0
 420 0002 054C     		ldr	r4, .L28
 421 0004 2068     		ldr	r0, [r4]
 422 0006 FFF7FEFF 		bl	chThdTerminate
 423              	.LVL23:
 424              		.loc 1 111 0
 425 000a 2068     		ldr	r0, [r4]
 426 000c FFF7FEFF 		bl	chThdWait
 427              	.LVL24:
 428              		.loc 1 112 0
 429 0010 0023     		movs	r3, #0
 430 0012 2360     		str	r3, [r4]
 431              		.loc 1 113 0
 432 0014 10BD     		pop	{r4, pc}
 433              	.L29:
 434 0016 00BF     		.align	2
 435              	.L28:
 436 0018 00000000 		.word	.LANCHOR5
 437              		.cfi_endproc
 438              	.LFE259:
 439              		.size	imu_stop, .-imu_stop
 440              		.section	.text.imu_compute_offset,"ax",%progbits
 441              		.align	1
 442              		.p2align 4,,15
 443              		.global	imu_compute_offset
 444              		.syntax unified
 445              		.thumb
 446              		.thumb_func
 447              		.fpu fpv4-sp-d16
 448              		.type	imu_compute_offset, %function
 449              	imu_compute_offset:
 450              	.LFB260:
 451              		.loc 1 115 0
 452              		.cfi_startproc
 453              		@ args = 0, pretend = 0, frame = 16
 454              		@ frame_needed = 0, uses_anonymous_args = 0
 455              	.LVL25:
 456 0000 2DE9F043 		push	{r4, r5, r6, r7, r8, r9, lr}
ARM GAS  C:\Users\mathi\AppData\Local\Temp\ccZGjVHc.s 			page 9


 457              		.cfi_def_cfa_offset 28
 458              		.cfi_offset 4, -28
 459              		.cfi_offset 5, -24
 460              		.cfi_offset 6, -20
 461              		.cfi_offset 7, -16
 462              		.cfi_offset 8, -12
 463              		.cfi_offset 9, -8
 464              		.cfi_offset 14, -4
 465              	.LBB86:
 466              		.loc 1 123 0
 467 0004 8846     		mov	r8, r1
 468              	.LBE86:
 469              		.loc 1 115 0
 470 0006 85B0     		sub	sp, sp, #20
 471              		.cfi_def_cfa_offset 48
 472              	.LBB88:
 473              		.loc 1 123 0
 474 0008 01B3     		cbz	r1, .L31
 475              		.loc 1 124 0
 476 000a 224F     		ldr	r7, .L40
 477 000c 0646     		mov	r6, r0
 478              		.loc 1 123 0
 479 000e 0024     		movs	r4, #0
 480 0010 0DF10605 		add	r5, sp, #6
 481              	.LVL26:
 482              	.L33:
 483              		.loc 1 124 0
 484 0014 3046     		mov	r0, r6
 485 0016 5022     		movs	r2, #80
 486 0018 3946     		mov	r1, r7
 487 001a FFF7FEFF 		bl	messagebus_topic_wait
 488              	.LVL27:
 489 001e DFF878C0 		ldr	ip, .L40+4
 490 0022 6B46     		mov	r3, sp
 491 0024 2846     		mov	r0, r5
 492              	.LVL28:
 493              	.L32:
 494              	.LBB87:
 495              		.loc 1 127 0 discriminator 3
 496 0026 3CF9029B 		ldrsh	r9, [ip], #2
 497 002a B3F90010 		ldrsh	r1, [r3]
 498              		.loc 1 128 0 discriminator 3
 499 002e 30F8022F 		ldrh	r2, [r0, #2]!
 500 0032 BCF804E0 		ldrh	lr, [ip, #4]
 501              		.loc 1 127 0 discriminator 3
 502 0036 4944     		add	r1, r1, r9
 503 0038 23F8021B 		strh	r1, [r3], #2	@ movhi
 504              		.loc 1 128 0 discriminator 3
 505 003c 7244     		add	r2, r2, lr
 506              		.loc 1 126 0 discriminator 3
 507 003e 9D42     		cmp	r5, r3
 508              		.loc 1 128 0 discriminator 3
 509 0040 0280     		strh	r2, [r0]	@ movhi
 510              		.loc 1 126 0 discriminator 3
 511 0042 F0D1     		bne	.L32
 512 0044 0134     		adds	r4, r4, #1
 513              	.LVL29:
ARM GAS  C:\Users\mathi\AppData\Local\Temp\ccZGjVHc.s 			page 10


 514 0046 24B2     		sxth	r4, r4
 515              	.LVL30:
 516              	.LBE87:
 517              		.loc 1 123 0 discriminator 2
 518 0048 4445     		cmp	r4, r8
 519 004a E3DB     		blt	.L33
 520              	.LVL31:
 521              	.L31:
 522              	.LBE88:
 523              		.loc 1 132 0
 524 004c 114B     		ldr	r3, .L40
 525              		.loc 1 133 0
 526 004e BDF90220 		ldrsh	r2, [sp, #2]
 527 0052 92FBF8F2 		sdiv	r2, r2, r8
 528 0056 DA86     		strh	r2, [r3, #54]	@ movhi
 529              		.loc 1 135 0
 530 0058 BDF90820 		ldrsh	r2, [sp, #8]
 531 005c 92FBF8F2 		sdiv	r2, r2, r8
 532 0060 5A87     		strh	r2, [r3, #58]	@ movhi
 533              		.loc 1 137 0
 534 0062 BDF90C20 		ldrsh	r2, [sp, #12]
 535              		.loc 1 132 0
 536 0066 BDF90010 		ldrsh	r1, [sp]
 537 006a 91FBF8F1 		sdiv	r1, r1, r8
 538 006e 9986     		strh	r1, [r3, #52]	@ movhi
 539              		.loc 1 134 0
 540 0070 BDF90410 		ldrsh	r1, [sp, #4]
 541 0074 91FBF8F1 		sdiv	r1, r1, r8
 542 0078 1987     		strh	r1, [r3, #56]	@ movhi
 543              		.loc 1 136 0
 544 007a BDF90A10 		ldrsh	r1, [sp, #10]
 545 007e 91FBF8F1 		sdiv	r1, r1, r8
 546              		.loc 1 137 0
 547 0082 92FBF8F8 		sdiv	r8, r2, r8
 548              		.loc 1 136 0
 549 0086 9987     		strh	r1, [r3, #60]	@ movhi
 550              		.loc 1 137 0
 551 0088 A3F83E80 		strh	r8, [r3, #62]	@ movhi
 552              		.loc 1 141 0
 553 008c 05B0     		add	sp, sp, #20
 554              		.cfi_def_cfa_offset 28
 555              		@ sp needed
 556 008e BDE8F083 		pop	{r4, r5, r6, r7, r8, r9, pc}
 557              	.L41:
 558 0092 00BF     		.align	2
 559              	.L40:
 560 0094 00000000 		.word	.LANCHOR0
 561 0098 28000000 		.word	.LANCHOR0+40
 562              		.cfi_endproc
 563              	.LFE260:
 564              		.size	imu_compute_offset, .-imu_compute_offset
 565              		.section	.text.get_acc,"ax",%progbits
 566              		.align	1
 567              		.p2align 4,,15
 568              		.global	get_acc
 569              		.syntax unified
 570              		.thumb
ARM GAS  C:\Users\mathi\AppData\Local\Temp\ccZGjVHc.s 			page 11


 571              		.thumb_func
 572              		.fpu fpv4-sp-d16
 573              		.type	get_acc, %function
 574              	get_acc:
 575              	.LFB261:
 576              		.loc 1 143 0
 577              		.cfi_startproc
 578              		@ args = 0, pretend = 0, frame = 0
 579              		@ frame_needed = 0, uses_anonymous_args = 0
 580              		@ link register save eliminated.
 581              	.LVL32:
 582              		.loc 1 144 0
 583 0000 0228     		cmp	r0, #2
 584              		.loc 1 145 0
 585 0002 9DBF     		ittte	ls
 586 0004 1430     		addls	r0, r0, #20
 587              	.LVL33:
 588 0006 024B     		ldrls	r3, .L45
 589 0008 33F91000 		ldrshls	r0, [r3, r0, lsl #1]
 590              		.loc 1 147 0
 591 000c 0020     		movhi	r0, #0
 592              		.loc 1 148 0
 593 000e 7047     		bx	lr
 594              	.L46:
 595              		.align	2
 596              	.L45:
 597 0010 00000000 		.word	.LANCHOR0
 598              		.cfi_endproc
 599              	.LFE261:
 600              		.size	get_acc, .-get_acc
 601              		.section	.text.get_acc_all,"ax",%progbits
 602              		.align	1
 603              		.p2align 4,,15
 604              		.global	get_acc_all
 605              		.syntax unified
 606              		.thumb
 607              		.thumb_func
 608              		.fpu fpv4-sp-d16
 609              		.type	get_acc_all, %function
 610              	get_acc_all:
 611              	.LFB262:
 612              		.loc 1 150 0
 613              		.cfi_startproc
 614              		@ args = 0, pretend = 0, frame = 0
 615              		@ frame_needed = 0, uses_anonymous_args = 0
 616              		@ link register save eliminated.
 617              	.LVL34:
 618              		.loc 1 151 0
 619 0000 054B     		ldr	r3, .L48
 620 0002 B3F92820 		ldrsh	r2, [r3, #40]
 621 0006 0280     		strh	r2, [r0]	@ movhi
 622              		.loc 1 152 0
 623 0008 B3F92A20 		ldrsh	r2, [r3, #42]
 624 000c 4280     		strh	r2, [r0, #2]	@ movhi
 625              		.loc 1 153 0
 626 000e B3F92C30 		ldrsh	r3, [r3, #44]
 627 0012 8380     		strh	r3, [r0, #4]	@ movhi
ARM GAS  C:\Users\mathi\AppData\Local\Temp\ccZGjVHc.s 			page 12


 628              		.loc 1 154 0
 629 0014 7047     		bx	lr
 630              	.L49:
 631 0016 00BF     		.align	2
 632              	.L48:
 633 0018 00000000 		.word	.LANCHOR0
 634              		.cfi_endproc
 635              	.LFE262:
 636              		.size	get_acc_all, .-get_acc_all
 637              		.section	.text.get_acc_offset,"ax",%progbits
 638              		.align	1
 639              		.p2align 4,,15
 640              		.global	get_acc_offset
 641              		.syntax unified
 642              		.thumb
 643              		.thumb_func
 644              		.fpu fpv4-sp-d16
 645              		.type	get_acc_offset, %function
 646              	get_acc_offset:
 647              	.LFB263:
 648              		.loc 1 156 0
 649              		.cfi_startproc
 650              		@ args = 0, pretend = 0, frame = 0
 651              		@ frame_needed = 0, uses_anonymous_args = 0
 652              		@ link register save eliminated.
 653              	.LVL35:
 654              		.loc 1 157 0
 655 0000 0228     		cmp	r0, #2
 656              		.loc 1 158 0
 657 0002 9DBF     		ittte	ls
 658 0004 034B     		ldrls	r3, .L53
 659 0006 03EB4000 		addls	r0, r3, r0, lsl #1
 660              	.LVL36:
 661 000a B0F93400 		ldrshls	r0, [r0, #52]
 662              		.loc 1 160 0
 663 000e 0020     		movhi	r0, #0
 664              		.loc 1 161 0
 665 0010 7047     		bx	lr
 666              	.L54:
 667 0012 00BF     		.align	2
 668              	.L53:
 669 0014 00000000 		.word	.LANCHOR0
 670              		.cfi_endproc
 671              	.LFE263:
 672              		.size	get_acc_offset, .-get_acc_offset
 673              		.section	.text.get_acceleration,"ax",%progbits
 674              		.align	1
 675              		.p2align 4,,15
 676              		.global	get_acceleration
 677              		.syntax unified
 678              		.thumb
 679              		.thumb_func
 680              		.fpu fpv4-sp-d16
 681              		.type	get_acceleration, %function
 682              	get_acceleration:
 683              	.LFB264:
 684              		.loc 1 163 0
ARM GAS  C:\Users\mathi\AppData\Local\Temp\ccZGjVHc.s 			page 13


 685              		.cfi_startproc
 686              		@ args = 0, pretend = 0, frame = 0
 687              		@ frame_needed = 0, uses_anonymous_args = 0
 688              		@ link register save eliminated.
 689              	.LVL37:
 690              		.loc 1 164 0
 691 0000 0228     		cmp	r0, #2
 692              		.loc 1 165 0
 693 0002 9DBF     		ittte	ls
 694 0004 034B     		ldrls	r3, .L58
 695 0006 03EB8000 		addls	r0, r3, r0, lsl #2
 696              	.LVL38:
 697 000a 90ED000A 		vldrls.32	s0, [r0]
 698              		.loc 1 167 0
 699 000e 9FED020A 		vldrhi.32	s0, .L58+4
 700              		.loc 1 168 0
 701 0012 7047     		bx	lr
 702              	.L59:
 703              		.align	2
 704              	.L58:
 705 0014 00000000 		.word	.LANCHOR0
 706 0018 00000000 		.word	0
 707              		.cfi_endproc
 708              	.LFE264:
 709              		.size	get_acceleration, .-get_acceleration
 710              		.section	.text.get_gyro,"ax",%progbits
 711              		.align	1
 712              		.p2align 4,,15
 713              		.global	get_gyro
 714              		.syntax unified
 715              		.thumb
 716              		.thumb_func
 717              		.fpu fpv4-sp-d16
 718              		.type	get_gyro, %function
 719              	get_gyro:
 720              	.LFB265:
 721              		.loc 1 170 0
 722              		.cfi_startproc
 723              		@ args = 0, pretend = 0, frame = 0
 724              		@ frame_needed = 0, uses_anonymous_args = 0
 725              		@ link register save eliminated.
 726              	.LVL39:
 727              		.loc 1 171 0
 728 0000 0228     		cmp	r0, #2
 729              		.loc 1 172 0
 730 0002 9DBF     		ittte	ls
 731 0004 034B     		ldrls	r3, .L63
 732 0006 03EB4000 		addls	r0, r3, r0, lsl #1
 733              	.LVL40:
 734 000a B0F92E00 		ldrshls	r0, [r0, #46]
 735              		.loc 1 174 0
 736 000e 0020     		movhi	r0, #0
 737              		.loc 1 175 0
 738 0010 7047     		bx	lr
 739              	.L64:
 740 0012 00BF     		.align	2
 741              	.L63:
ARM GAS  C:\Users\mathi\AppData\Local\Temp\ccZGjVHc.s 			page 14


 742 0014 00000000 		.word	.LANCHOR0
 743              		.cfi_endproc
 744              	.LFE265:
 745              		.size	get_gyro, .-get_gyro
 746              		.section	.text.get_gyro_all,"ax",%progbits
 747              		.align	1
 748              		.p2align 4,,15
 749              		.global	get_gyro_all
 750              		.syntax unified
 751              		.thumb
 752              		.thumb_func
 753              		.fpu fpv4-sp-d16
 754              		.type	get_gyro_all, %function
 755              	get_gyro_all:
 756              	.LFB266:
 757              		.loc 1 177 0
 758              		.cfi_startproc
 759              		@ args = 0, pretend = 0, frame = 0
 760              		@ frame_needed = 0, uses_anonymous_args = 0
 761              		@ link register save eliminated.
 762              	.LVL41:
 763              		.loc 1 178 0
 764 0000 054B     		ldr	r3, .L66
 765 0002 B3F92E20 		ldrsh	r2, [r3, #46]
 766 0006 0280     		strh	r2, [r0]	@ movhi
 767              		.loc 1 179 0
 768 0008 B3F93020 		ldrsh	r2, [r3, #48]
 769 000c 4280     		strh	r2, [r0, #2]	@ movhi
 770              		.loc 1 180 0
 771 000e B3F93230 		ldrsh	r3, [r3, #50]
 772 0012 8380     		strh	r3, [r0, #4]	@ movhi
 773              		.loc 1 181 0
 774 0014 7047     		bx	lr
 775              	.L67:
 776 0016 00BF     		.align	2
 777              	.L66:
 778 0018 00000000 		.word	.LANCHOR0
 779              		.cfi_endproc
 780              	.LFE266:
 781              		.size	get_gyro_all, .-get_gyro_all
 782              		.section	.text.get_gyro_offset,"ax",%progbits
 783              		.align	1
 784              		.p2align 4,,15
 785              		.global	get_gyro_offset
 786              		.syntax unified
 787              		.thumb
 788              		.thumb_func
 789              		.fpu fpv4-sp-d16
 790              		.type	get_gyro_offset, %function
 791              	get_gyro_offset:
 792              	.LFB267:
 793              		.loc 1 183 0
 794              		.cfi_startproc
 795              		@ args = 0, pretend = 0, frame = 0
 796              		@ frame_needed = 0, uses_anonymous_args = 0
 797              		@ link register save eliminated.
 798              	.LVL42:
ARM GAS  C:\Users\mathi\AppData\Local\Temp\ccZGjVHc.s 			page 15


 799              		.loc 1 184 0
 800 0000 0228     		cmp	r0, #2
 801              		.loc 1 185 0
 802 0002 9DBF     		ittte	ls
 803 0004 034B     		ldrls	r3, .L71
 804 0006 03EB4000 		addls	r0, r3, r0, lsl #1
 805              	.LVL43:
 806 000a B0F93A00 		ldrshls	r0, [r0, #58]
 807              		.loc 1 187 0
 808 000e 0020     		movhi	r0, #0
 809              		.loc 1 188 0
 810 0010 7047     		bx	lr
 811              	.L72:
 812 0012 00BF     		.align	2
 813              	.L71:
 814 0014 00000000 		.word	.LANCHOR0
 815              		.cfi_endproc
 816              	.LFE267:
 817              		.size	get_gyro_offset, .-get_gyro_offset
 818              		.section	.text.get_gyro_rate,"ax",%progbits
 819              		.align	1
 820              		.p2align 4,,15
 821              		.global	get_gyro_rate
 822              		.syntax unified
 823              		.thumb
 824              		.thumb_func
 825              		.fpu fpv4-sp-d16
 826              		.type	get_gyro_rate, %function
 827              	get_gyro_rate:
 828              	.LFB268:
 829              		.loc 1 190 0
 830              		.cfi_startproc
 831              		@ args = 0, pretend = 0, frame = 0
 832              		@ frame_needed = 0, uses_anonymous_args = 0
 833              		@ link register save eliminated.
 834              	.LVL44:
 835              		.loc 1 191 0
 836 0000 0228     		cmp	r0, #2
 837              		.loc 1 192 0
 838 0002 9DBF     		ittte	ls
 839 0004 034B     		ldrls	r3, .L76
 840 0006 03EB8000 		addls	r0, r3, r0, lsl #2
 841              	.LVL45:
 842 000a 90ED030A 		vldrls.32	s0, [r0, #12]
 843              		.loc 1 194 0
 844 000e 9FED020A 		vldrhi.32	s0, .L76+4
 845              		.loc 1 195 0
 846 0012 7047     		bx	lr
 847              	.L77:
 848              		.align	2
 849              	.L76:
 850 0014 00000000 		.word	.LANCHOR0
 851 0018 00000000 		.word	0
 852              		.cfi_endproc
 853              	.LFE268:
 854              		.size	get_gyro_rate, .-get_gyro_rate
 855              		.section	.text.get_temperature,"ax",%progbits
ARM GAS  C:\Users\mathi\AppData\Local\Temp\ccZGjVHc.s 			page 16


 856              		.align	1
 857              		.p2align 4,,15
 858              		.global	get_temperature
 859              		.syntax unified
 860              		.thumb
 861              		.thumb_func
 862              		.fpu fpv4-sp-d16
 863              		.type	get_temperature, %function
 864              	get_temperature:
 865              	.LFB269:
 866              		.loc 1 197 0
 867              		.cfi_startproc
 868              		@ args = 0, pretend = 0, frame = 0
 869              		@ frame_needed = 0, uses_anonymous_args = 0
 870              		@ link register save eliminated.
 871              		.loc 1 198 0
 872 0000 014B     		ldr	r3, .L79
 873              		.loc 1 199 0
 874 0002 93ED060A 		vldr.32	s0, [r3, #24]
 875 0006 7047     		bx	lr
 876              	.L80:
 877              		.align	2
 878              	.L79:
 879 0008 00000000 		.word	.LANCHOR0
 880              		.cfi_endproc
 881              	.LFE269:
 882              		.size	get_temperature, .-get_temperature
 883              		.section	.bss.imuThd,"aw",%nobits
 884              		.align	2
 885              		.set	.LANCHOR5,. + 0
 886              		.type	imuThd, %object
 887              		.size	imuThd, 4
 888              	imuThd:
 889 0000 00000000 		.space	4
 890              		.section	.bss.imu_configured,"aw",%nobits
 891              		.set	.LANCHOR3,. + 0
 892              		.type	imu_configured, %object
 893              		.size	imu_configured, 1
 894              	imu_configured:
 895 0000 00       		.space	1
 896              		.section	.bss.imu_reader_thd_wa.10145,"aw",%nobits
 897              		.align	3
 898              		.set	.LANCHOR4,. + 0
 899              		.type	imu_reader_thd_wa.10145, %object
 900              		.size	imu_reader_thd_wa.10145, 1400
 901              	imu_reader_thd_wa.10145:
 902 0000 00000000 		.space	1400
 902      00000000 
 902      00000000 
 902      00000000 
 902      00000000 
 903              		.section	.bss.imu_values,"aw",%nobits
 904              		.align	2
 905              		.set	.LANCHOR0,. + 0
 906              		.type	imu_values, %object
 907              		.size	imu_values, 80
 908              	imu_values:
ARM GAS  C:\Users\mathi\AppData\Local\Temp\ccZGjVHc.s 			page 17


 909 0000 00000000 		.space	80
 909      00000000 
 909      00000000 
 909      00000000 
 909      00000000 
 910              		.section	.rodata.__FUNCTION__.10133,"a",%progbits
 911              		.align	2
 912              		.set	.LANCHOR1,. + 0
 913              		.type	__FUNCTION__.10133, %object
 914              		.size	__FUNCTION__.10133, 15
 915              	__FUNCTION__.10133:
 916 0000 696D755F 		.ascii	"imu_reader_thd\000"
 916      72656164 
 916      65725F74 
 916      686400
 917              		.section	.rodata.__func__.7153,"a",%progbits
 918              		.align	2
 919              		.set	.LANCHOR2,. + 0
 920              		.type	__func__.7153, %object
 921              		.size	__func__.7153, 12
 922              	__func__.7153:
 923 0000 63685379 		.ascii	"chSysUnlock\000"
 923      73556E6C 
 923      6F636B00 
 924              		.section	.rodata.imu_reader_thd.str1.4,"aMS",%progbits,1
 925              		.align	2
 926              	.LC0:
 927 0000 2F696D75 		.ascii	"/imu\000"
 927      00
 928              		.text
 929              	.Letext0:
 930              		.file 7 "c:\\eclipse_e-puck2\\tools\\gcc-arm-none-eabi-7-2017-q4-major-win32\\lib\\gcc\\arm-none-e
 931              		.file 8 "c:\\eclipse_e-puck2\\tools\\gcc-arm-none-eabi-7-2017-q4-major-win32\\arm-none-eabi\\inclu
 932              		.file 9 "c:\\eclipse_e-puck2\\tools\\gcc-arm-none-eabi-7-2017-q4-major-win32\\arm-none-eabi\\inclu
 933              		.file 10 "../../lib/ChibiOS/os/rt/ports/ARMCMx/compilers/GCC/chtypes.h"
 934              		.file 11 "../../lib/ChibiOS/os/rt/include/chsystypes.h"
 935              		.file 12 "../../lib/ChibiOS/os/rt/include/chschd.h"
 936              		.file 13 "../../lib/ChibiOS/os/ext/CMSIS/include/core_cm4.h"
 937              		.file 14 "../../lib/ChibiOS/os/ext/CMSIS/ST/system_stm32f4xx.h"
 938              		.file 15 "../../lib/ChibiOS/os/ext/CMSIS/ST/stm32f407xx.h"
 939              		.file 16 "../../lib/ChibiOS/os/rt/ports/ARMCMx/chcore.h"
 940              		.file 17 "../../lib/ChibiOS/os/rt/ports/ARMCMx/chcore_v7m.h"
 941              		.file 18 "../../lib/ChibiOS/os/rt/include/chdebug.h"
 942              		.file 19 "../../lib/ChibiOS/os/rt/include/chtm.h"
 943              		.file 20 "../../lib/ChibiOS/os/rt/include/chstats.h"
 944              		.file 21 "../../lib/ChibiOS/os/rt/include/chsem.h"
 945              		.file 22 "../../lib/ChibiOS/os/rt/include/chmtx.h"
 946              		.file 23 "../../lib/ChibiOS/os/rt/include/chcond.h"
 947              		.file 24 "../../lib/ChibiOS/os/rt/include/chevents.h"
 948              		.file 25 "../../lib/ChibiOS/os/rt/include/chqueues.h"
 949              		.file 26 "../../lib/ChibiOS/os/hal/ports/STM32/STM32F4xx/stm32_dma.h"
 950              		.file 27 "../../lib/ChibiOS/os/hal/ports/STM32/LLD/GPIOv2/pal_lld.h"
 951              		.file 28 "../../lib/ChibiOS/os/hal/include/gpt.h"
 952              		.file 29 "../../lib/ChibiOS/os/hal/ports/STM32/LLD/TIMv1/gpt_lld.h"
 953              		.file 30 "../../lib/ChibiOS/os/hal/ports/STM32/LLD/TIMv1/stm32_tim.h"
 954              		.file 31 "../../lib/ChibiOS/os/hal/include/i2c.h"
 955              		.file 32 "../../lib/ChibiOS/os/hal/ports/STM32/LLD/I2Cv1/i2c_lld.h"
ARM GAS  C:\Users\mathi\AppData\Local\Temp\ccZGjVHc.s 			page 18


 956              		.file 33 "../../lib/ChibiOS/os/hal/include/serial.h"
 957              		.file 34 "../../lib/ChibiOS/os/hal/ports/STM32/LLD/USARTv1/serial_lld.h"
 958              		.file 35 "../../lib/ChibiOS/os/hal/include/usb.h"
 959              		.file 36 "../../lib/ChibiOS/os/hal/ports/STM32/LLD/OTGv1/usb_lld.h"
 960              		.file 37 "../../lib/ChibiOS/os/hal/ports/STM32/LLD/OTGv1/stm32_otg.h"
 961              		.file 38 "c:\\eclipse_e-puck2\\tools\\gcc-arm-none-eabi-7-2017-q4-major-win32\\arm-none-eabi\\incl
 962              		.file 39 "c:\\eclipse_e-puck2\\tools\\gcc-arm-none-eabi-7-2017-q4-major-win32\\arm-none-eabi\\incl
 963              		.file 40 "c:\\eclipse_e-puck2\\tools\\gcc-arm-none-eabi-7-2017-q4-major-win32\\arm-none-eabi\\incl
 964              		.file 41 "c:\\eclipse_e-puck2\\tools\\gcc-arm-none-eabi-7-2017-q4-major-win32\\arm-none-eabi\\incl
 965              		.file 42 "c:\\eclipse_e-puck2\\tools\\gcc-arm-none-eabi-7-2017-q4-major-win32\\arm-none-eabi\\incl
 966              		.file 43 "../../lib/msgbus/messagebus.h"
 967              		.file 44 "./mpu9250.h"
 968              		.file 45 "./imu.h"