ARM GAS  C:\Users\mathi\AppData\Local\Temp\ccDOKei2.s 			page 1


   1              		.cpu cortex-m4
   2              		.eabi_attribute 27, 1
   3              		.eabi_attribute 28, 1
   4              		.eabi_attribute 20, 1
   5              		.eabi_attribute 21, 1
   6              		.eabi_attribute 23, 3
   7              		.eabi_attribute 24, 1
   8              		.eabi_attribute 25, 1
   9              		.eabi_attribute 26, 1
  10              		.eabi_attribute 30, 2
  11              		.eabi_attribute 34, 1
  12              		.eabi_attribute 18, 4
  13              		.file	"main.c"
  14              		.text
  15              	.Ltext0:
  16              		.cfi_sections	.debug_frame
  17              		.section	.text.ThdBodyLed,"ax",%progbits
  18              		.align	1
  19              		.p2align 4,,15
  20              		.syntax unified
  21              		.thumb
  22              		.thumb_func
  23              		.fpu fpv4-sp-d16
  24              		.type	ThdBodyLed, %function
  25              	ThdBodyLed:
  26              	.LFB261:
  27              		.file 1 "main.c"
  28              		.loc 1 65 0
  29              		.cfi_startproc
  30              		@ Volatile: function does not return.
  31              		@ args = 0, pretend = 0, frame = 0
  32              		@ frame_needed = 0, uses_anonymous_args = 0
  33              	.LVL0:
  34 0000 08B5     		push	{r3, lr}
  35              		.cfi_def_cfa_offset 8
  36              		.cfi_offset 3, -8
  37              		.cfi_offset 14, -4
  38              	.LBB41:
  39              	.LBB42:
  40              		.file 2 "../../lib/ChibiOS/os/rt/include/chregistry.h"
  41              		.loc 2 135 0
  42 0002 074B     		ldr	r3, .L5
  43 0004 074A     		ldr	r2, .L5+4
  44 0006 9B69     		ldr	r3, [r3, #24]
  45              	.LBE42:
  46              	.LBE41:
  47              		.loc 1 71 0
  48 0008 074C     		ldr	r4, .L5+8
  49              	.LBB44:
  50              	.LBB43:
  51              		.loc 2 135 0
  52 000a 9A61     		str	r2, [r3, #24]
  53              	.LVL1:
  54              	.L2:
  55              	.LBE43:
  56              	.LBE44:
  57              		.loc 1 71 0 discriminator 1
ARM GAS  C:\Users\mathi\AppData\Local\Temp\ccDOKei2.s 			page 2


  58 000c 6369     		ldr	r3, [r4, #20]
  59 000e 83F00403 		eor	r3, r3, #4
  60 0012 6361     		str	r3, [r4, #20]
  61              		.loc 1 76 0 discriminator 1
  62 0014 4FF4FA70 		mov	r0, #500
  63 0018 FFF7FEFF 		bl	chThdSleep
  64              	.LVL2:
  65 001c F6E7     		b	.L2
  66              	.L6:
  67 001e 00BF     		.align	2
  68              	.L5:
  69 0020 00000000 		.word	ch
  70 0024 00000000 		.word	.LANCHOR0
  71 0028 00040240 		.word	1073873920
  72              		.cfi_endproc
  73              	.LFE261:
  74              		.size	ThdBodyLed, .-ThdBodyLed
  75              		.section	.text.chprintf.constprop.0,"ax",%progbits
  76              		.align	1
  77              		.p2align 4,,15
  78              		.syntax unified
  79              		.thumb
  80              		.thumb_func
  81              		.fpu fpv4-sp-d16
  82              		.type	chprintf.constprop.0, %function
  83              	chprintf.constprop.0:
  84              	.LFB264:
  85              		.file 3 "../../lib/ChibiOS/os/hal/lib/streams/chprintf.h"
  86              		.loc 3 69 0
  87              		.cfi_startproc
  88              		@ args = 4, pretend = 12, frame = 8
  89              		@ frame_needed = 0, uses_anonymous_args = 1
  90              	.LVL3:
  91 0000 0EB4     		push	{r1, r2, r3}
  92              		.cfi_def_cfa_offset 12
  93              		.cfi_offset 1, -12
  94              		.cfi_offset 2, -8
  95              		.cfi_offset 3, -4
  96 0002 00B5     		push	{lr}
  97              		.cfi_def_cfa_offset 16
  98              		.cfi_offset 14, -16
  99 0004 82B0     		sub	sp, sp, #8
 100              		.cfi_def_cfa_offset 24
 101              		.loc 3 69 0
 102 0006 03AA     		add	r2, sp, #12
 103              		.loc 3 74 0
 104 0008 0548     		ldr	r0, .L9
 105              	.LVL4:
 106              		.loc 3 69 0
 107 000a 52F8041B 		ldr	r1, [r2], #4
 108              		.loc 3 73 0
 109 000e 0192     		str	r2, [sp, #4]
 110              		.loc 3 74 0
 111 0010 FFF7FEFF 		bl	chvprintf
 112              	.LVL5:
 113              		.loc 3 78 0
 114 0014 02B0     		add	sp, sp, #8
ARM GAS  C:\Users\mathi\AppData\Local\Temp\ccDOKei2.s 			page 3


 115              		.cfi_def_cfa_offset 16
 116              		@ sp needed
 117 0016 5DF804EB 		ldr	lr, [sp], #4
 118              		.cfi_restore 14
 119              		.cfi_def_cfa_offset 12
 120 001a 03B0     		add	sp, sp, #12
 121              		.cfi_restore 3
 122              		.cfi_restore 2
 123              		.cfi_restore 1
 124              		.cfi_def_cfa_offset 0
 125 001c 7047     		bx	lr
 126              	.L10:
 127 001e 00BF     		.align	2
 128              	.L9:
 129 0020 00000000 		.word	SD3
 130              		.cfi_endproc
 131              	.LFE264:
 132              		.size	chprintf.constprop.0, .-chprintf.constprop.0
 133              		.section	.text.ThdFrontLed,"ax",%progbits
 134              		.align	1
 135              		.p2align 4,,15
 136              		.syntax unified
 137              		.thumb
 138              		.thumb_func
 139              		.fpu fpv4-sp-d16
 140              		.type	ThdFrontLed, %function
 141              	ThdFrontLed:
 142              	.LFB260:
 143              		.loc 1 50 0
 144              		.cfi_startproc
 145              		@ args = 0, pretend = 0, frame = 0
 146              		@ frame_needed = 0, uses_anonymous_args = 0
 147              	.LVL6:
 148 0000 2DE9F041 		push	{r4, r5, r6, r7, r8, lr}
 149              		.cfi_def_cfa_offset 24
 150              		.cfi_offset 4, -24
 151              		.cfi_offset 5, -20
 152              		.cfi_offset 6, -16
 153              		.cfi_offset 7, -12
 154              		.cfi_offset 8, -8
 155              		.cfi_offset 14, -4
 156              	.LBB61:
 157              	.LBB62:
 158              		.loc 2 135 0
 159 0004 154C     		ldr	r4, .L15
 160 0006 164A     		ldr	r2, .L15+4
 161 0008 A369     		ldr	r3, [r4, #24]
 162              	.LBE62:
 163              	.LBE61:
 164              	.LBB64:
 165              	.LBB65:
 166              	.LBB66:
 167              	.LBB67:
 168              		.file 4 "../../lib/ChibiOS/os/rt/include/chsys.h"
 169              		.loc 4 367 0
 170 000a DFF85C80 		ldr	r8, .L15+12
 171              	.LBE67:
ARM GAS  C:\Users\mathi\AppData\Local\Temp\ccDOKei2.s 			page 4


 172              	.LBE66:
 173              	.LBE65:
 174              	.LBE64:
 175              		.loc 1 59 0
 176 000e 154E     		ldr	r6, .L15+8
 177              	.LBB81:
 178              	.LBB63:
 179              		.loc 2 135 0
 180 0010 9A61     		str	r2, [r3, #24]
 181              	.LBE63:
 182              	.LBE81:
 183              	.LBB82:
 184              	.LBB80:
 185              	.LBB72:
 186              	.LBB73:
 187              	.LBB74:
 188              	.LBB75:
 189              	.LBB76:
 190              		.file 5 "../../lib/ChibiOS/os/ext/CMSIS/include/core_cmFunc.h"
 191              		.loc 5 546 0
 192 0012 2027     		movs	r7, #32
 193              	.LVL7:
 194              	.L13:
 195              		.loc 5 546 0 is_stmt 0 discriminator 1
 196              		.syntax unified
 197              	@ 546 "../../lib/ChibiOS/os/ext/CMSIS/include/core_cmFunc.h" 1
 198 0014 87F31188 		MSR basepri, r7
 199              	@ 0 "" 2
 200              	.LVL8:
 201              		.thumb
 202              		.syntax unified
 203              	.LBE76:
 204              	.LBE75:
 205              	.LBE74:
 206              		.loc 4 349 0 is_stmt 1 discriminator 1
 207 0018 FFF7FEFF 		bl	_stats_start_measure_crit_thd
 208              	.LVL9:
 209              		.loc 4 350 0 discriminator 1
 210 001c FFF7FEFF 		bl	_dbg_check_lock
 211              	.LVL10:
 212              	.LBE73:
 213              	.LBE72:
 214              	.LBB77:
 215              	.LBB78:
 216              		.file 6 "../../lib/ChibiOS/os/rt/include/chvt.h"
 217              		.loc 6 231 0 discriminator 1
 218 0020 A56A     		ldr	r5, [r4, #40]
 219              	.LBE78:
 220              	.LBE77:
 221              	.LBB79:
 222              	.LBB71:
 223              		.loc 4 360 0 discriminator 1
 224 0022 FFF7FEFF 		bl	_dbg_check_unlock
 225              	.LVL11:
 226              		.loc 4 361 0 discriminator 1
 227 0026 FFF7FEFF 		bl	_stats_stop_measure_crit_thd
 228              	.LVL12:
ARM GAS  C:\Users\mathi\AppData\Local\Temp\ccDOKei2.s 			page 5


 229              		.loc 4 367 0 discriminator 1
 230 002a 2368     		ldr	r3, [r4]
 231 002c A342     		cmp	r3, r4
 232 002e 07D0     		beq	.L12
 233              		.loc 4 367 0 is_stmt 0
 234 0030 A269     		ldr	r2, [r4, #24]
 235 0032 9B68     		ldr	r3, [r3, #8]
 236 0034 9268     		ldr	r2, [r2, #8]
 237 0036 9A42     		cmp	r2, r3
 238 0038 02D2     		bcs	.L12
 239 003a 4046     		mov	r0, r8
 240 003c FFF7FEFF 		bl	chSysHalt
 241              	.LVL13:
 242              	.L12:
 243              	.LBB68:
 244              	.LBB69:
 245              	.LBB70:
 246              		.loc 5 546 0 is_stmt 1
 247 0040 0023     		movs	r3, #0
 248              		.syntax unified
 249              	@ 546 "../../lib/ChibiOS/os/ext/CMSIS/include/core_cmFunc.h" 1
 250 0042 83F31188 		MSR basepri, r3
 251              	@ 0 "" 2
 252              	.LVL14:
 253              		.thumb
 254              		.syntax unified
 255              	.LBE70:
 256              	.LBE69:
 257              	.LBE68:
 258              	.LBE71:
 259              	.LBE79:
 260              	.LBE80:
 261              	.LBE82:
 262              		.loc 1 59 0
 263 0046 7369     		ldr	r3, [r6, #20]
 264 0048 83F48043 		eor	r3, r3, #16384
 265 004c 7361     		str	r3, [r6, #20]
 266              		.loc 1 60 0
 267 004e 05F10A01 		add	r1, r5, #10
 268 0052 2846     		mov	r0, r5
 269 0054 FFF7FEFF 		bl	chThdSleepUntilWindowed
 270              	.LVL15:
 271 0058 DCE7     		b	.L13
 272              	.L16:
 273 005a 00BF     		.align	2
 274              	.L15:
 275 005c 00000000 		.word	ch
 276 0060 00000000 		.word	.LANCHOR1
 277 0064 000C0240 		.word	1073875968
 278 0068 00000000 		.word	.LANCHOR2
 279              		.cfi_endproc
 280              	.LFE260:
 281              		.size	ThdFrontLed, .-ThdFrontLed
 282              		.section	.text.panic_handler,"ax",%progbits
 283              		.align	1
 284              		.p2align 4,,15
 285              		.global	panic_handler
ARM GAS  C:\Users\mathi\AppData\Local\Temp\ccDOKei2.s 			page 6


 286              		.syntax unified
 287              		.thumb
 288              		.thumb_func
 289              		.fpu fpv4-sp-d16
 290              		.type	panic_handler, %function
 291              	panic_handler:
 292              	.LFB257:
 293              		.loc 1 15 0
 294              		.cfi_startproc
 295              		@ Volatile: function does not return.
 296              		@ args = 0, pretend = 0, frame = 0
 297              		@ frame_needed = 0, uses_anonymous_args = 0
 298              		@ link register save eliminated.
 299              	.LVL16:
 300              		.loc 1 18 0
 301 0000 084B     		ldr	r3, .L19
 302              		.loc 1 23 0
 303 0002 094A     		ldr	r2, .L19+4
 304              		.loc 1 18 0
 305 0004 2020     		movs	r0, #32
 306              	.LVL17:
 307              		.loc 1 19 0
 308 0006 4021     		movs	r1, #64
 309              		.loc 1 18 0
 310 0008 5883     		strh	r0, [r3, #26]	@ movhi
 311              		.loc 1 20 0
 312 000a 4FF48065 		mov	r5, #1024
 313              		.loc 1 19 0
 314 000e 5983     		strh	r1, [r3, #26]	@ movhi
 315              		.loc 1 21 0
 316 0010 4FF40064 		mov	r4, #2048
 317              		.loc 1 22 0
 318 0014 4FF48040 		mov	r0, #16384
 319              		.loc 1 23 0
 320 0018 0421     		movs	r1, #4
 321              		.loc 1 20 0
 322 001a 5D83     		strh	r5, [r3, #26]	@ movhi
 323              		.loc 1 21 0
 324 001c 5C83     		strh	r4, [r3, #26]	@ movhi
 325              		.loc 1 22 0
 326 001e 5883     		strh	r0, [r3, #26]	@ movhi
 327              		.loc 1 23 0
 328 0020 5183     		strh	r1, [r2, #26]	@ movhi
 329              	.L18:
 330 0022 FEE7     		b	.L18
 331              	.L20:
 332              		.align	2
 333              	.L19:
 334 0024 000C0240 		.word	1073875968
 335 0028 00040240 		.word	1073873920
 336              		.cfi_endproc
 337              	.LFE257:
 338              		.size	panic_handler, .-panic_handler
 339              		.section	.text.show_gravity,"ax",%progbits
 340              		.align	1
 341              		.p2align 4,,15
 342              		.global	show_gravity
ARM GAS  C:\Users\mathi\AppData\Local\Temp\ccDOKei2.s 			page 7


 343              		.syntax unified
 344              		.thumb
 345              		.thumb_func
 346              		.fpu fpv4-sp-d16
 347              		.type	show_gravity, %function
 348              	show_gravity:
 349              	.LFB262:
 350              		.loc 1 99 0
 351              		.cfi_startproc
 352              		@ args = 0, pretend = 0, frame = 16
 353              		@ frame_needed = 0, uses_anonymous_args = 0
 354              	.LVL18:
 355 0000 30B5     		push	{r4, r5, lr}
 356              		.cfi_def_cfa_offset 12
 357              		.cfi_offset 4, -12
 358              		.cfi_offset 5, -8
 359              		.cfi_offset 14, -4
 360 0002 2DED028B 		vpush.64	{d8}
 361              		.cfi_def_cfa_offset 20
 362              		.cfi_offset 80, -20
 363              		.cfi_offset 81, -16
 364 0006 85B0     		sub	sp, sp, #20
 365              		.cfi_def_cfa_offset 40
 366              		.loc 1 103 0
 367 0008 0025     		movs	r5, #0
 368              		.loc 1 99 0
 369 000a 0446     		mov	r4, r0
 370              		.loc 1 103 0
 371 000c ADF80E50 		strh	r5, [sp, #14]	@ movhi
 372              	.LVL19:
 373              	.LBB93:
 374              	.LBB94:
 375              	.LBB95:
 376              	.LBB96:
 377              	.LBB97:
 378              		.loc 5 546 0
 379 0010 2023     		movs	r3, #32
 380              		.syntax unified
 381              	@ 546 "../../lib/ChibiOS/os/ext/CMSIS/include/core_cmFunc.h" 1
 382 0012 83F31188 		MSR basepri, r3
 383              	@ 0 "" 2
 384              	.LVL20:
 385              		.thumb
 386              		.syntax unified
 387              	.LBE97:
 388              	.LBE96:
 389              	.LBE95:
 390              		.loc 4 349 0
 391 0016 FFF7FEFF 		bl	_stats_start_measure_crit_thd
 392              	.LVL21:
 393              		.loc 4 350 0
 394 001a FFF7FEFF 		bl	_dbg_check_lock
 395              	.LVL22:
 396              	.LBE94:
 397              	.LBE93:
 398              		.loc 1 112 0
 399 001e 3C4B     		ldr	r3, .L33
ARM GAS  C:\Users\mathi\AppData\Local\Temp\ccDOKei2.s 			page 8


 400 0020 DB68     		ldr	r3, [r3, #12]
 401 0022 5D62     		str	r5, [r3, #36]
 402              		.loc 1 119 0
 403 0024 5B6A     		ldr	r3, [r3, #36]
 404 0026 9BB2     		uxth	r3, r3
 405 0028 ADF80E30 		strh	r3, [sp, #14]	@ movhi
 406              	.LBB98:
 407              	.LBB99:
 408              		.loc 4 360 0
 409 002c FFF7FEFF 		bl	_dbg_check_unlock
 410              	.LVL23:
 411              		.loc 4 361 0
 412 0030 FFF7FEFF 		bl	_stats_stop_measure_crit_thd
 413              	.LVL24:
 414              		.loc 4 367 0
 415 0034 374B     		ldr	r3, .L33+4
 416 0036 1A68     		ldr	r2, [r3]
 417 0038 9A42     		cmp	r2, r3
 418 003a 04D0     		beq	.L22
 419 003c 9969     		ldr	r1, [r3, #24]
 420 003e 9368     		ldr	r3, [r2, #8]
 421 0040 8A68     		ldr	r2, [r1, #8]
 422 0042 9A42     		cmp	r2, r3
 423 0044 49D3     		bcc	.L32
 424              	.L22:
 425              	.LVL25:
 426              	.LBB100:
 427              	.LBB101:
 428              	.LBB102:
 429              		.loc 5 546 0
 430 0046 0023     		movs	r3, #0
 431              		.syntax unified
 432              	@ 546 "../../lib/ChibiOS/os/ext/CMSIS/include/core_cmFunc.h" 1
 433 0048 83F31188 		MSR basepri, r3
 434              	@ 0 "" 2
 435              	.LVL26:
 436              		.thumb
 437              		.syntax unified
 438              	.LBE102:
 439              	.LBE101:
 440              	.LBE100:
 441              	.LBE99:
 442              	.LBE98:
 443              		.loc 1 128 0
 444 004c D4ED008A 		vldr.32	s17, [r4]
 445              	.LVL27:
 446              		.loc 1 129 0
 447 0050 94ED018A 		vldr.32	s16, [r4, #4]
 448              	.LVL28:
 449              		.loc 1 131 0
 450 0054 F0EE680A 		vmov.f32	s1, s17
 451 0058 B0EE480A 		vmov.f32	s0, s16
 452 005c FFF7FEFF 		bl	atan2f
 453              	.LVL29:
 454              		.loc 1 134 0
 455 0060 DFED2D6A 		vldr.32	s13, .L33+8
 456 0064 30EE000A 		vadd.f32	s0, s0, s0
ARM GAS  C:\Users\mathi\AppData\Local\Temp\ccDOKei2.s 			page 9


 457              	.LVL30:
 458              		.loc 1 146 0
 459 0068 28EE088A 		vmul.f32	s16, s16, s16
 460              	.LVL31:
 461              		.loc 1 134 0
 462 006c 80EE267A 		vdiv.f32	s14, s0, s13
 463              		.loc 1 137 0
 464 0070 4FF40064 		mov	r4, #2048
 465              	.LVL32:
 466              		.loc 1 134 0
 467 0074 F0EE047A 		vmov.f32	s15, #2.5e+0
 468              		.loc 1 146 0
 469 0078 A8EEA88A 		vfma.f32	s16, s17, s17
 470              		.loc 1 134 0
 471 007c 37EE270A 		vadd.f32	s0, s14, s15
 472 0080 FFF7FEFF 		bl	floorf
 473              	.LVL33:
 474              		.loc 1 146 0
 475 0084 DFED257A 		vldr.32	s15, .L33+12
 476              		.loc 1 137 0
 477 0088 254B     		ldr	r3, .L33+16
 478              		.loc 1 146 0
 479 008a B4EEE78A 		vcmpe.f32	s16, s15
 480              		.loc 1 139 0
 481 008e 4FF48060 		mov	r0, #1024
 482              		.loc 1 141 0
 483 0092 4021     		movs	r1, #64
 484              		.loc 1 143 0
 485 0094 2022     		movs	r2, #32
 486              		.loc 1 146 0
 487 0096 F1EE10FA 		vmrs	APSR_nzcv, FPSCR
 488              		.loc 1 137 0
 489 009a 1C83     		strh	r4, [r3, #24]	@ movhi
 490              		.loc 1 139 0
 491 009c 1883     		strh	r0, [r3, #24]	@ movhi
 492              		.loc 1 141 0
 493 009e 1983     		strh	r1, [r3, #24]	@ movhi
 494              		.loc 1 143 0
 495 00a0 1A83     		strh	r2, [r3, #24]	@ movhi
 496              		.loc 1 146 0
 497 00a2 16DD     		ble	.L21
 498              		.loc 1 135 0
 499 00a4 FDEEC07A 		vcvt.s32.f32	s15, s0
 500 00a8 CDED017A 		vstr.32	s15, [sp, #4]	@ int
 501 00ac 9DF90430 		ldrsb	r3, [sp, #4]
 502 00b0 0233     		adds	r3, r3, #2
 503 00b2 5A42     		rsbs	r2, r3, #0
 504 00b4 02F00302 		and	r2, r2, #3
 505 00b8 03F00303 		and	r3, r3, #3
 506              		.loc 1 147 0
 507 00bc 58BF     		it	pl
 508 00be 5342     		rsbpl	r3, r2, #0
 509 00c0 032B     		cmp	r3, #3
 510 00c2 06D8     		bhi	.L21
 511 00c4 DFE803F0 		tbb	[pc, r3]
 512              	.L26:
 513 00c8 0D       		.byte	(.L25-.L26)/2
ARM GAS  C:\Users\mathi\AppData\Local\Temp\ccDOKei2.s 			page 10


 514 00c9 15       		.byte	(.L27-.L26)/2
 515 00ca 1D       		.byte	(.L28-.L26)/2
 516 00cb 02       		.byte	(.L29-.L26)/2
 517              		.p2align 1
 518              	.L29:
 519              		.loc 1 167 0
 520 00cc 144B     		ldr	r3, .L33+16
 521 00ce 2022     		movs	r2, #32
 522 00d0 5A83     		strh	r2, [r3, #26]	@ movhi
 523              	.L21:
 524              		.loc 1 174 0
 525 00d2 05B0     		add	sp, sp, #20
 526              		.cfi_remember_state
 527              		.cfi_def_cfa_offset 20
 528              		@ sp needed
 529 00d4 BDEC028B 		vldm	sp!, {d8}
 530              		.cfi_restore 80
 531              		.cfi_restore 81
 532              		.cfi_def_cfa_offset 12
 533 00d8 30BD     		pop	{r4, r5, pc}
 534              	.LVL34:
 535              	.L32:
 536              		.cfi_restore_state
 537              	.LBB104:
 538              	.LBB103:
 539              		.loc 4 367 0
 540 00da 1248     		ldr	r0, .L33+20
 541 00dc FFF7FEFF 		bl	chSysHalt
 542              	.LVL35:
 543 00e0 B1E7     		b	.L22
 544              	.LVL36:
 545              	.L25:
 546              	.LBE103:
 547              	.LBE104:
 548              		.loc 1 149 0
 549 00e2 0F4B     		ldr	r3, .L33+16
 550 00e4 4FF40062 		mov	r2, #2048
 551 00e8 5A83     		strh	r2, [r3, #26]	@ movhi
 552              		.loc 1 174 0
 553 00ea 05B0     		add	sp, sp, #20
 554              		.cfi_remember_state
 555              		.cfi_def_cfa_offset 20
 556              		@ sp needed
 557 00ec BDEC028B 		vldm	sp!, {d8}
 558              		.cfi_restore 80
 559              		.cfi_restore 81
 560              		.cfi_def_cfa_offset 12
 561 00f0 30BD     		pop	{r4, r5, pc}
 562              	.L27:
 563              		.cfi_restore_state
 564              		.loc 1 155 0
 565 00f2 0B4B     		ldr	r3, .L33+16
 566 00f4 4FF48062 		mov	r2, #1024
 567 00f8 5A83     		strh	r2, [r3, #26]	@ movhi
 568              		.loc 1 174 0
 569 00fa 05B0     		add	sp, sp, #20
 570              		.cfi_remember_state
ARM GAS  C:\Users\mathi\AppData\Local\Temp\ccDOKei2.s 			page 11


 571              		.cfi_def_cfa_offset 20
 572              		@ sp needed
 573 00fc BDEC028B 		vldm	sp!, {d8}
 574              		.cfi_restore 80
 575              		.cfi_restore 81
 576              		.cfi_def_cfa_offset 12
 577 0100 30BD     		pop	{r4, r5, pc}
 578              	.L28:
 579              		.cfi_restore_state
 580              		.loc 1 161 0
 581 0102 074B     		ldr	r3, .L33+16
 582 0104 4022     		movs	r2, #64
 583 0106 5A83     		strh	r2, [r3, #26]	@ movhi
 584              		.loc 1 174 0
 585 0108 05B0     		add	sp, sp, #20
 586              		.cfi_def_cfa_offset 20
 587              		@ sp needed
 588 010a BDEC028B 		vldm	sp!, {d8}
 589              		.cfi_restore 80
 590              		.cfi_restore 81
 591              		.cfi_def_cfa_offset 12
 592 010e 30BD     		pop	{r4, r5, pc}
 593              	.L34:
 594              		.align	2
 595              	.L33:
 596 0110 00000000 		.word	GPTD11
 597 0114 00000000 		.word	ch
 598 0118 DB0F4940 		.word	1078530011
 599 011c E378C041 		.word	1103132899
 600 0120 000C0240 		.word	1073875968
 601 0124 00000000 		.word	.LANCHOR2
 602              		.cfi_endproc
 603              	.LFE262:
 604              		.size	show_gravity, .-show_gravity
 605              		.global	__aeabi_f2d
 606              		.section	.text.startup.main,"ax",%progbits
 607              		.align	1
 608              		.p2align 4,,15
 609              		.global	main
 610              		.syntax unified
 611              		.thumb
 612              		.thumb_func
 613              		.fpu fpv4-sp-d16
 614              		.type	main, %function
 615              	main:
 616              	.LFB263:
 617              		.loc 1 176 0
 618              		.cfi_startproc
 619              		@ args = 0, pretend = 0, frame = 80
 620              		@ frame_needed = 0, uses_anonymous_args = 0
 621 0000 2DE9F04F 		push	{r4, r5, r6, r7, r8, r9, r10, fp, lr}
 622              		.cfi_def_cfa_offset 36
 623              		.cfi_offset 4, -36
 624              		.cfi_offset 5, -32
 625              		.cfi_offset 6, -28
 626              		.cfi_offset 7, -24
 627              		.cfi_offset 8, -20
ARM GAS  C:\Users\mathi\AppData\Local\Temp\ccDOKei2.s 			page 12


 628              		.cfi_offset 9, -16
 629              		.cfi_offset 10, -12
 630              		.cfi_offset 11, -8
 631              		.cfi_offset 14, -4
 632 0004 A1B0     		sub	sp, sp, #132
 633              		.cfi_def_cfa_offset 168
 634              		.loc 1 178 0
 635 0006 FFF7FEFF 		bl	halInit
 636              	.LVL37:
 637              		.loc 1 179 0
 638 000a FFF7FEFF 		bl	chSysInit
 639              	.LVL38:
 640              	.LBB109:
 641              	.LBB110:
 642              		.loc 1 33 0
 643 000e 5649     		ldr	r1, .L38
 644 0010 5648     		ldr	r0, .L38+4
 645              	.LBE110:
 646              	.LBE109:
 647              		.loc 1 211 0
 648 0012 574D     		ldr	r5, .L38+8
 649              		.loc 1 228 0
 650 0014 DFF88491 		ldr	r9, .L38+52
 651              	.LBB112:
 652              	.LBB111:
 653              		.loc 1 33 0
 654 0018 FFF7FEFF 		bl	sdStart
 655              	.LVL39:
 656              	.LBE111:
 657              	.LBE112:
 658              	.LBB113:
 659              	.LBB114:
 660              		.loc 1 44 0
 661 001c 5549     		ldr	r1, .L38+12
 662 001e 5648     		ldr	r0, .L38+16
 663 0020 FFF7FEFF 		bl	gptStart
 664              	.LVL40:
 665              		.loc 1 46 0
 666 0024 4FF6FF71 		movw	r1, #65535
 667 0028 5348     		ldr	r0, .L38+16
 668 002a FFF7FEFF 		bl	gptStartContinuous
 669              	.LVL41:
 670              	.LBE114:
 671              	.LBE113:
 672              		.loc 1 191 0
 673 002e 0024     		movs	r4, #0
 674              		.loc 1 182 0
 675 0030 FFF7FEFF 		bl	i2c_start
 676              	.LVL42:
 677              		.loc 1 183 0
 678 0034 FFF7FEFF 		bl	imu_start
 679              	.LVL43:
 680              		.loc 1 186 0
 681 0038 504A     		ldr	r2, .L38+20
 682 003a 5149     		ldr	r1, .L38+24
 683 003c 5148     		ldr	r0, .L38+28
 684 003e FFF7FEFF 		bl	messagebus_init
ARM GAS  C:\Users\mathi\AppData\Local\Temp\ccDOKei2.s 			page 13


 685              	.LVL44:
 686              		.loc 1 191 0
 687 0042 0094     		str	r4, [sp]
 688 0044 504B     		ldr	r3, .L38+32
 689 0046 5148     		ldr	r0, .L38+36
 690 0048 4022     		movs	r2, #64
 691 004a 4FF4FC71 		mov	r1, #504
 692 004e FFF7FEFF 		bl	chThdCreateStatic
 693              	.LVL45:
 694              		.loc 1 193 0
 695 0052 4F4B     		ldr	r3, .L38+40
 696 0054 0094     		str	r4, [sp]
 697 0056 4022     		movs	r2, #64
 698 0058 4FF4FC71 		mov	r1, #504
 699 005c 4D48     		ldr	r0, .L38+44
 700              		.loc 1 211 0
 701 005e 434C     		ldr	r4, .L38+4
 702              		.loc 1 193 0
 703 0060 FFF7FEFF 		bl	chThdCreateStatic
 704              	.LVL46:
 705              		.loc 1 197 0
 706 0064 4220     		movs	r0, #66
 707 0066 FFF7FEFF 		bl	chThdSetPriority
 708              	.LVL47:
 709              		.loc 1 199 0
 710 006a 4B49     		ldr	r1, .L38+48
 711 006c 4548     		ldr	r0, .L38+28
 712 006e FFF7FEFF 		bl	messagebus_find_topic_blocking
 713              	.LVL48:
 714 0072 8046     		mov	r8, r0
 715              	.LVL49:
 716              		.loc 1 204 0
 717 0074 4FF4FA60 		mov	r0, #2000
 718              	.LVL50:
 719 0078 FFF7FEFF 		bl	chThdSleep
 720              	.LVL51:
 721              		.loc 1 205 0
 722 007c 4046     		mov	r0, r8
 723 007e C821     		movs	r1, #200
 724 0080 FFF7FEFF 		bl	imu_compute_offset
 725              	.LVL52:
 726              	.L36:
 727              		.loc 1 209 0 discriminator 1
 728 0084 0CA9     		add	r1, sp, #48
 729 0086 4046     		mov	r0, r8
 730 0088 5022     		movs	r2, #80
 731 008a FFF7FEFF 		bl	messagebus_topic_wait
 732              	.LVL53:
 733              		.loc 1 211 0 discriminator 1
 734 008e BDF96270 		ldrsh	r7, [sp, #98]
 735 0092 BDF96060 		ldrsh	r6, [sp, #96]
 736 0096 BDF95E00 		ldrsh	r0, [sp, #94]
 737 009a BDF95C10 		ldrsh	r1, [sp, #92]
 738 009e BDF95A30 		ldrsh	r3, [sp, #90]
 739 00a2 BDF95820 		ldrsh	r2, [sp, #88]
 740 00a6 CDE90267 		strd	r6, r7, [sp, #8]
 741 00aa CDE90010 		strd	r1, r0, [sp]
ARM GAS  C:\Users\mathi\AppData\Local\Temp\ccDOKei2.s 			page 14


 742 00ae 2946     		mov	r1, r5
 743 00b0 2046     		mov	r0, r4
 744 00b2 FFF7FEFF 		bl	chprintf.constprop.0
 745              	.LVL54:
 746              		.loc 1 225 0 discriminator 1
 747 00b6 BDF962B0 		ldrsh	fp, [sp, #98]
 748 00ba BDF96E20 		ldrsh	r2, [sp, #110]
 749              		.loc 1 224 0 discriminator 1
 750 00be BDF96C70 		ldrsh	r7, [sp, #108]
 751 00c2 BDF96060 		ldrsh	r6, [sp, #96]
 752              		.loc 1 222 0 discriminator 1
 753 00c6 BDF968E0 		ldrsh	lr, [sp, #104]
 754              		.loc 1 223 0 discriminator 1
 755 00ca BDF95E00 		ldrsh	r0, [sp, #94]
 756 00ce BDF96AA0 		ldrsh	r10, [sp, #106]
 757              		.loc 1 222 0 discriminator 1
 758 00d2 BDF95C10 		ldrsh	r1, [sp, #92]
 759              		.loc 1 221 0 discriminator 1
 760 00d6 BDF95AC0 		ldrsh	ip, [sp, #90]
 761 00da BDF96630 		ldrsh	r3, [sp, #102]
 762              		.loc 1 218 0 discriminator 1
 763 00de ABEB0202 		sub	r2, fp, r2
 764 00e2 F61B     		subs	r6, r6, r7
 765 00e4 0392     		str	r2, [sp, #12]
 766              		.loc 1 220 0 discriminator 1
 767 00e6 BDF95870 		ldrsh	r7, [sp, #88]
 768 00ea BDF96420 		ldrsh	r2, [sp, #100]
 769              		.loc 1 218 0 discriminator 1
 770 00ee 0296     		str	r6, [sp, #8]
 771 00f0 A1EB0E01 		sub	r1, r1, lr
 772 00f4 A0EB0A00 		sub	r0, r0, r10
 773 00f8 ACEB0303 		sub	r3, ip, r3
 774 00fc BA1A     		subs	r2, r7, r2
 775 00fe CDE90010 		strd	r1, r0, [sp]
 776 0102 2946     		mov	r1, r5
 777 0104 2046     		mov	r0, r4
 778 0106 FFF7FEFF 		bl	chprintf.constprop.0
 779              	.LVL55:
 780              		.loc 1 228 0 discriminator 1
 781 010a 0C98     		ldr	r0, [sp, #48]	@ float
 782 010c FFF7FEFF 		bl	__aeabi_f2d
 783              	.LVL56:
 784 0110 9DF87C30 		ldrb	r3, [sp, #124]	@ zero_extendqisi2
 785 0114 0A93     		str	r3, [sp, #40]
 786 0116 0646     		mov	r6, r0
 787 0118 1198     		ldr	r0, [sp, #68]	@ float
 788 011a 0F46     		mov	r7, r1
 789 011c FFF7FEFF 		bl	__aeabi_f2d
 790              	.LVL57:
 791 0120 CDE90801 		strd	r0, [sp, #32]
 792 0124 1098     		ldr	r0, [sp, #64]	@ float
 793 0126 FFF7FEFF 		bl	__aeabi_f2d
 794              	.LVL58:
 795 012a CDE90601 		strd	r0, [sp, #24]
 796 012e 0F98     		ldr	r0, [sp, #60]	@ float
 797 0130 FFF7FEFF 		bl	__aeabi_f2d
 798              	.LVL59:
ARM GAS  C:\Users\mathi\AppData\Local\Temp\ccDOKei2.s 			page 15


 799 0134 CDE90401 		strd	r0, [sp, #16]
 800 0138 0E98     		ldr	r0, [sp, #56]	@ float
 801 013a FFF7FEFF 		bl	__aeabi_f2d
 802              	.LVL60:
 803 013e CDE90201 		strd	r0, [sp, #8]
 804 0142 0D98     		ldr	r0, [sp, #52]	@ float
 805 0144 FFF7FEFF 		bl	__aeabi_f2d
 806              	.LVL61:
 807 0148 3246     		mov	r2, r6
 808 014a CDE90001 		strd	r0, [sp]
 809 014e 3B46     		mov	r3, r7
 810 0150 4946     		mov	r1, r9
 811 0152 2046     		mov	r0, r4
 812 0154 FFF7FEFF 		bl	chprintf.constprop.0
 813              	.LVL62:
 814              		.loc 1 236 0 discriminator 1
 815 0158 0CA8     		add	r0, sp, #48
 816 015a FFF7FEFF 		bl	show_gravity
 817              	.LVL63:
 818              		.loc 1 237 0 discriminator 1
 819 015e 6420     		movs	r0, #100
 820 0160 FFF7FEFF 		bl	chThdSleep
 821              	.LVL64:
 822 0164 8EE7     		b	.L36
 823              	.L39:
 824 0166 00BF     		.align	2
 825              	.L38:
 826 0168 00000000 		.word	.LANCHOR3
 827 016c 00000000 		.word	SD3
 828 0170 08000000 		.word	.LC1
 829 0174 00000000 		.word	.LANCHOR4
 830 0178 00000000 		.word	GPTD11
 831 017c 00000000 		.word	.LANCHOR5
 832 0180 00000000 		.word	.LANCHOR6
 833 0184 00000000 		.word	.LANCHOR7
 834 0188 00000000 		.word	ThdFrontLed
 835 018c 00000000 		.word	.LANCHOR8
 836 0190 00000000 		.word	ThdBodyLed
 837 0194 00000000 		.word	.LANCHOR9
 838 0198 00000000 		.word	.LC0
 839 019c 3C000000 		.word	.LC2
 840              		.cfi_endproc
 841              	.LFE263:
 842              		.size	main, .-main
 843              		.global	bus_condvar
 844              		.global	bus_lock
 845              		.global	bus
 846              		.section	.bss.bus,"aw",%nobits
 847              		.align	2
 848              		.set	.LANCHOR7,. + 0
 849              		.type	bus, %object
 850              		.size	bus, 12
 851              	bus:
 852 0000 00000000 		.space	12
 852      00000000 
 852      00000000 
 853              		.section	.bss.waThdBodyLed,"aw",%nobits
ARM GAS  C:\Users\mathi\AppData\Local\Temp\ccDOKei2.s 			page 16


 854              		.align	3
 855              		.set	.LANCHOR9,. + 0
 856              		.type	waThdBodyLed, %object
 857              		.size	waThdBodyLed, 504
 858              	waThdBodyLed:
 859 0000 00000000 		.space	504
 859      00000000 
 859      00000000 
 859      00000000 
 859      00000000 
 860              		.section	.bss.waThdFrontLed,"aw",%nobits
 861              		.align	3
 862              		.set	.LANCHOR8,. + 0
 863              		.type	waThdFrontLed, %object
 864              		.size	waThdFrontLed, 504
 865              	waThdFrontLed:
 866 0000 00000000 		.space	504
 866      00000000 
 866      00000000 
 866      00000000 
 866      00000000 
 867              		.section	.data.bus_condvar,"aw",%progbits
 868              		.align	2
 869              		.set	.LANCHOR5,. + 0
 870              		.type	bus_condvar, %object
 871              		.size	bus_condvar, 8
 872              	bus_condvar:
 873 0000 00000000 		.word	bus_condvar
 874 0004 00000000 		.word	bus_condvar
 875              		.section	.data.bus_lock,"aw",%progbits
 876              		.align	2
 877              		.set	.LANCHOR6,. + 0
 878              		.type	bus_lock, %object
 879              		.size	bus_lock, 20
 880              	bus_lock:
 881 0000 00000000 		.word	bus_lock
 882 0004 00000000 		.word	bus_lock
 883 0008 00000000 		.word	0
 884 000c 00000000 		.word	0
 885 0010 00000000 		.word	0
 886              		.section	.data.ser_cfg.10164,"aw",%progbits
 887              		.align	2
 888              		.set	.LANCHOR3,. + 0
 889              		.type	ser_cfg.10164, %object
 890              		.size	ser_cfg.10164, 12
 891              	ser_cfg.10164:
 892 0000 00C20100 		.word	115200
 893 0004 0000     		.short	0
 894 0006 0000     		.short	0
 895 0008 0000     		.short	0
 896 000a 0000     		.space	2
 897              		.section	.rodata.__FUNCTION__.10173,"a",%progbits
 898              		.align	2
 899              		.set	.LANCHOR1,. + 0
 900              		.type	__FUNCTION__.10173, %object
 901              		.size	__FUNCTION__.10173, 12
 902              	__FUNCTION__.10173:
ARM GAS  C:\Users\mathi\AppData\Local\Temp\ccDOKei2.s 			page 17


 903 0000 54686446 		.ascii	"ThdFrontLed\000"
 903      726F6E74 
 903      4C656400 
 904              		.section	.rodata.__FUNCTION__.10180,"a",%progbits
 905              		.align	2
 906              		.set	.LANCHOR0,. + 0
 907              		.type	__FUNCTION__.10180, %object
 908              		.size	__FUNCTION__.10180, 11
 909              	__FUNCTION__.10180:
 910 0000 54686442 		.ascii	"ThdBodyLed\000"
 910      6F64794C 
 910      656400
 911              		.section	.rodata.__func__.7153,"a",%progbits
 912              		.align	2
 913              		.set	.LANCHOR2,. + 0
 914              		.type	__func__.7153, %object
 915              		.size	__func__.7153, 12
 916              	__func__.7153:
 917 0000 63685379 		.ascii	"chSysUnlock\000"
 917      73556E6C 
 917      6F636B00 
 918              		.section	.rodata.gpt11cfg.10168,"a",%progbits
 919              		.align	2
 920              		.set	.LANCHOR4,. + 0
 921              		.type	gpt11cfg.10168, %object
 922              		.size	gpt11cfg.10168, 16
 923              	gpt11cfg.10168:
 924 0000 40420F00 		.word	1000000
 925 0004 00000000 		.word	0
 926 0008 00000000 		.word	0
 927 000c 00000000 		.word	0
 928              		.section	.rodata.main.str1.4,"aMS",%progbits,1
 929              		.align	2
 930              	.LC0:
 931 0000 2F696D75 		.ascii	"/imu\000"
 931      00
 932 0005 000000   		.space	3
 933              	.LC1:
 934 0008 2541783D 		.ascii	"%Ax=%-7d Ay=%-7d Az=%-7d Gx=%-7d Gy=%-7d Gz=%-7d\015"
 934      252D3764 
 934      2041793D 
 934      252D3764 
 934      20417A3D 
 935 0039 0A00     		.ascii	"\012\000"
 936 003b 00       		.space	1
 937              	.LC2:
 938 003c 2541783D 		.ascii	"%Ax=%.2f Ay=%.2f Az=%.2f Gx=%.2f Gy=%.2f Gz=%.2f (%"
 938      252E3266 
 938      2041793D 
 938      252E3266 
 938      20417A3D 
 939 006f 78290D0A 		.ascii	"x)\015\012\012\000"
 939      0A00
 940              		.text
 941              	.Letext0:
 942              		.file 7 "c:\\eclipse_e-puck2\\tools\\gcc-arm-none-eabi-7-2017-q4-major-win32\\lib\\gcc\\arm-none-e
 943              		.file 8 "c:\\eclipse_e-puck2\\tools\\gcc-arm-none-eabi-7-2017-q4-major-win32\\arm-none-eabi\\inclu
ARM GAS  C:\Users\mathi\AppData\Local\Temp\ccDOKei2.s 			page 18


 944              		.file 9 "c:\\eclipse_e-puck2\\tools\\gcc-arm-none-eabi-7-2017-q4-major-win32\\arm-none-eabi\\inclu
 945              		.file 10 "../../lib/ChibiOS/os/rt/ports/ARMCMx/compilers/GCC/chtypes.h"
 946              		.file 11 "../../lib/ChibiOS/os/rt/include/chsystypes.h"
 947              		.file 12 "../../lib/ChibiOS/os/rt/include/chschd.h"
 948              		.file 13 "../../lib/ChibiOS/os/ext/CMSIS/include/core_cm4.h"
 949              		.file 14 "../../lib/ChibiOS/os/ext/CMSIS/ST/system_stm32f4xx.h"
 950              		.file 15 "../../lib/ChibiOS/os/ext/CMSIS/ST/stm32f407xx.h"
 951              		.file 16 "../../lib/ChibiOS/os/rt/ports/ARMCMx/chcore.h"
 952              		.file 17 "../../lib/ChibiOS/os/rt/ports/ARMCMx/chcore_v7m.h"
 953              		.file 18 "../../lib/ChibiOS/os/rt/include/chdebug.h"
 954              		.file 19 "../../lib/ChibiOS/os/rt/include/chtm.h"
 955              		.file 20 "../../lib/ChibiOS/os/rt/include/chstats.h"
 956              		.file 21 "../../lib/ChibiOS/os/rt/include/chsem.h"
 957              		.file 22 "../../lib/ChibiOS/os/rt/include/chmtx.h"
 958              		.file 23 "../../lib/ChibiOS/os/rt/include/chcond.h"
 959              		.file 24 "../../lib/ChibiOS/os/rt/include/chevents.h"
 960              		.file 25 "../../lib/ChibiOS/os/rt/include/chqueues.h"
 961              		.file 26 "../../lib/ChibiOS/os/rt/include/chstreams.h"
 962              		.file 27 "../../lib/ChibiOS/os/hal/ports/STM32/STM32F4xx/stm32_dma.h"
 963              		.file 28 "../../lib/ChibiOS/os/hal/ports/STM32/LLD/GPIOv2/pal_lld.h"
 964              		.file 29 "../../lib/ChibiOS/os/hal/include/gpt.h"
 965              		.file 30 "../../lib/ChibiOS/os/hal/ports/STM32/LLD/TIMv1/gpt_lld.h"
 966              		.file 31 "../../lib/ChibiOS/os/hal/ports/STM32/LLD/TIMv1/stm32_tim.h"
 967              		.file 32 "../../lib/ChibiOS/os/hal/include/i2c.h"
 968              		.file 33 "../../lib/ChibiOS/os/hal/ports/STM32/LLD/I2Cv1/i2c_lld.h"
 969              		.file 34 "../../lib/ChibiOS/os/hal/include/serial.h"
 970              		.file 35 "../../lib/ChibiOS/os/hal/ports/STM32/LLD/USARTv1/serial_lld.h"
 971              		.file 36 "../../lib/ChibiOS/os/hal/include/usb.h"
 972              		.file 37 "../../lib/ChibiOS/os/hal/ports/STM32/LLD/OTGv1/usb_lld.h"
 973              		.file 38 "../../lib/ChibiOS/os/hal/ports/STM32/LLD/OTGv1/stm32_otg.h"
 974              		.file 39 "c:\\eclipse_e-puck2\\tools\\gcc-arm-none-eabi-7-2017-q4-major-win32\\arm-none-eabi\\incl
 975              		.file 40 "c:\\eclipse_e-puck2\\tools\\gcc-arm-none-eabi-7-2017-q4-major-win32\\arm-none-eabi\\incl
 976              		.file 41 "c:\\eclipse_e-puck2\\tools\\gcc-arm-none-eabi-7-2017-q4-major-win32\\arm-none-eabi\\incl
 977              		.file 42 "c:\\eclipse_e-puck2\\tools\\gcc-arm-none-eabi-7-2017-q4-major-win32\\arm-none-eabi\\incl
 978              		.file 43 "c:\\eclipse_e-puck2\\tools\\gcc-arm-none-eabi-7-2017-q4-major-win32\\lib\\gcc\\arm-none-
 979              		.file 44 "<built-in>"
 980              		.file 45 "c:\\eclipse_e-puck2\\tools\\gcc-arm-none-eabi-7-2017-q4-major-win32\\arm-none-eabi\\incl
 981              		.file 46 "../../lib/msgbus/messagebus.h"
 982              		.file 47 "./mpu9250.h"
 983              		.file 48 "./imu.h"
 984              		.file 49 "../../lib/ChibiOS/os/hal/include/hal.h"
 985              		.file 50 "./i2c_bus.h"
 986              		.file 51 "../../lib/ChibiOS/os/rt/include/chthreads.h"